
test:     file format elf64-littleriscv


Disassembly of section .text:

0000000000010144 <add>:
   10144:	7179                	addi	sp,sp,-48
   10146:	f422                	sd	s0,40(sp)
   10148:	1800                	addi	s0,sp,48
   1014a:	87aa                	mv	a5,a0
   1014c:	872e                	mv	a4,a1
   1014e:	fcf42e23          	sw	a5,-36(s0)
   10152:	87ba                	mv	a5,a4
   10154:	fcf42c23          	sw	a5,-40(s0)
   10158:	fdc42703          	lw	a4,-36(s0)
   1015c:	fd842783          	lw	a5,-40(s0)
   10160:	9fb9                	addw	a5,a5,a4
   10162:	fef42623          	sw	a5,-20(s0)
   10166:	fec42783          	lw	a5,-20(s0)
   1016a:	853e                	mv	a0,a5
   1016c:	7422                	ld	s0,40(sp)
   1016e:	6145                	addi	sp,sp,48
   10170:	8082                	ret

0000000000010172 <main>:
   10172:	1101                	addi	sp,sp,-32
   10174:	ec06                	sd	ra,24(sp)
   10176:	e822                	sd	s0,16(sp)
   10178:	e426                	sd	s1,8(sp)
   1017a:	1000                	addi	s0,sp,32
   1017c:	4085                	li	ra,1
   1017e:	408d                	li	ra,3
   10180:	4491                	li	s1,4
   10182:	00001797          	auipc	a5,0x1
   10186:	05e7b783          	ld	a5,94(a5) # 111e0 <_GLOBAL_OFFSET_TABLE_+0x8>
   1018a:	439c                	lw	a5,0(a5)
   1018c:	2785                	addiw	a5,a5,1
   1018e:	2781                	sext.w	a5,a5
   10190:	80be                	mv	ra,a5
   10192:	0089                	addi	ra,ra,2
   10194:	00308493          	addi	s1,ra,3
   10198:	0000879b          	sext.w	a5,ra
   1019c:	0004871b          	sext.w	a4,s1
   101a0:	85ba                	mv	a1,a4
   101a2:	853e                	mv	a0,a5
   101a4:	fa1ff0ef          	jal	ra,10144 <add>
   101a8:	87aa                	mv	a5,a0
   101aa:	873e                	mv	a4,a5
   101ac:	00001797          	auipc	a5,0x1
   101b0:	0347b783          	ld	a5,52(a5) # 111e0 <_GLOBAL_OFFSET_TABLE_+0x8>
   101b4:	c398                	sw	a4,0(a5)
   101b6:	4781                	li	a5,0
   101b8:	853e                	mv	a0,a5
   101ba:	60e2                	ld	ra,24(sp)
   101bc:	6442                	ld	s0,16(sp)
   101be:	64a2                	ld	s1,8(sp)
   101c0:	6105                	addi	sp,sp,32
   101c2:	8082                	ret
