
a.out：     文件格式 elf64-littleaarch64


Disassembly of section .init:

0000000000400220 <_init>:
  400220:	a9bf7bfd 	stp	x29, x30, [sp, #-16]!
  400224:	910003fd 	mov	x29, sp
  400228:	94000037 	bl	400304 <call_weak_fn>
  40022c:	a8c17bfd 	ldp	x29, x30, [sp], #16
  400230:	d65f03c0 	ret

Disassembly of section .plt:

0000000000400240 <.plt>:
  400240:	90000410 	adrp	x16, 480000 <_GLOBAL_OFFSET_TABLE_+0xc0>
  400244:	f9400211 	ldr	x17, [x16]
  400248:	91000210 	add	x16, x16, #0x0
  40024c:	d61f0220 	br	x17
  400250:	90000410 	adrp	x16, 480000 <_GLOBAL_OFFSET_TABLE_+0xc0>
  400254:	f9400611 	ldr	x17, [x16, #8]
  400258:	91002210 	add	x16, x16, #0x8
  40025c:	d61f0220 	br	x17
  400260:	90000410 	adrp	x16, 480000 <_GLOBAL_OFFSET_TABLE_+0xc0>
  400264:	f9400a11 	ldr	x17, [x16, #16]
  400268:	91004210 	add	x16, x16, #0x10
  40026c:	d61f0220 	br	x17

Disassembly of section .text:

0000000000400280 <backtrace_and_maps.constprop.0>:
  400280:	d65f03c0 	ret

0000000000400284 <oom>:
  400284:	a9bf7bfd 	stp	x29, x30, [sp, #-16]!
  400288:	f0000301 	adrp	x1, 463000 <__PRETTY_FUNCTION__.10825+0xf0>
  40028c:	91008021 	add	x1, x1, #0x20
  400290:	52800040 	mov	w0, #0x2                   	// #2
  400294:	910003fd 	mov	x29, sp
  400298:	9401165a 	bl	445c00 <_dl_dprintf>
  40029c:	52800fe0 	mov	w0, #0x7f                  	// #127
  4002a0:	940072e2 	bl	41ce28 <_exit>
  4002a4:	00000000 	.inst	0x00000000 ; undefined

00000000004002a8 <fini>:
  4002a8:	d0000420 	adrp	x0, 486000 <static_slotinfo+0x320>
  4002ac:	f944a400 	ldr	x0, [x0, #2376]
  4002b0:	1401286e 	b	44a468 <check_free.isra.0>

00000000004002b4 <_start>:
  4002b4:	d280001d 	mov	x29, #0x0                   	// #0
  4002b8:	d280001e 	mov	x30, #0x0                   	// #0
  4002bc:	aa0003e5 	mov	x5, x0
  4002c0:	f94003e1 	ldr	x1, [sp]
  4002c4:	910023e2 	add	x2, sp, #0x8
  4002c8:	910003e6 	mov	x6, sp
  4002cc:	d2e00000 	movz	x0, #0x0, lsl #48
  4002d0:	f2c00000 	movk	x0, #0x0, lsl #32
  4002d4:	f2a00800 	movk	x0, #0x40, lsl #16
  4002d8:	f2807f80 	movk	x0, #0x3fc
  4002dc:	d2e00003 	movz	x3, #0x0, lsl #48
  4002e0:	f2c00003 	movk	x3, #0x0, lsl #32
  4002e4:	f2a00803 	movk	x3, #0x40, lsl #16
  4002e8:	f28d0303 	movk	x3, #0x6818
  4002ec:	d2e00004 	movz	x4, #0x0, lsl #48
  4002f0:	f2c00004 	movk	x4, #0x0, lsl #32
  4002f4:	f2a00804 	movk	x4, #0x40, lsl #16
  4002f8:	f28d1b04 	movk	x4, #0x68d8
  4002fc:	9400179b 	bl	406168 <__libc_start_main>
  400300:	94002b74 	bl	40b0d0 <abort>

0000000000400304 <call_weak_fn>:
  400304:	f00003e0 	adrp	x0, 47f000 <__FRAME_END__+0x10164>
  400308:	f947f000 	ldr	x0, [x0, #4064]
  40030c:	b4000040 	cbz	x0, 400314 <call_weak_fn+0x10>
  400310:	d503201f 	nop
  400314:	d65f03c0 	ret

0000000000400318 <deregister_tm_clones>:
  400318:	b0000400 	adrp	x0, 481000 <cached_result.11763>
  40031c:	91288000 	add	x0, x0, #0xa20
  400320:	b0000401 	adrp	x1, 481000 <cached_result.11763>
  400324:	91288021 	add	x1, x1, #0xa20
  400328:	eb00003f 	cmp	x1, x0
  40032c:	540000a0 	b.eq	400340 <deregister_tm_clones+0x28>  // b.none
  400330:	90000281 	adrp	x1, 450000 <_nl_locale_subfreeres+0xe0>
  400334:	f9433421 	ldr	x1, [x1, #1640]
  400338:	b4000041 	cbz	x1, 400340 <deregister_tm_clones+0x28>
  40033c:	d61f0020 	br	x1
  400340:	d65f03c0 	ret
  400344:	d503201f 	nop

0000000000400348 <register_tm_clones>:
  400348:	b0000400 	adrp	x0, 481000 <cached_result.11763>
  40034c:	91288000 	add	x0, x0, #0xa20
  400350:	b0000401 	adrp	x1, 481000 <cached_result.11763>
  400354:	91288021 	add	x1, x1, #0xa20
  400358:	cb000021 	sub	x1, x1, x0
  40035c:	9343fc21 	asr	x1, x1, #3
  400360:	8b41fc21 	add	x1, x1, x1, lsr #63
  400364:	9341fc21 	asr	x1, x1, #1
  400368:	b40000a1 	cbz	x1, 40037c <register_tm_clones+0x34>
  40036c:	90000282 	adrp	x2, 450000 <_nl_locale_subfreeres+0xe0>
  400370:	f9433842 	ldr	x2, [x2, #1648]
  400374:	b4000042 	cbz	x2, 40037c <register_tm_clones+0x34>
  400378:	d61f0040 	br	x2
  40037c:	d65f03c0 	ret

0000000000400380 <__do_global_dtors_aux>:
  400380:	a9be7bfd 	stp	x29, x30, [sp, #-32]!
  400384:	910003fd 	mov	x29, sp
  400388:	f9000bf3 	str	x19, [sp, #16]
  40038c:	b0000413 	adrp	x19, 481000 <cached_result.11763>
  400390:	39688260 	ldrb	w0, [x19, #2592]
  400394:	35000140 	cbnz	w0, 4003bc <__do_global_dtors_aux+0x3c>
  400398:	97ffffe0 	bl	400318 <deregister_tm_clones>
  40039c:	90000280 	adrp	x0, 450000 <_nl_locale_subfreeres+0xe0>
  4003a0:	f9433c00 	ldr	x0, [x0, #1656]
  4003a4:	b4000080 	cbz	x0, 4003b4 <__do_global_dtors_aux+0x34>
  4003a8:	d0000340 	adrp	x0, 46a000 <__PRETTY_FUNCTION__.12054+0x128>
  4003ac:	91260000 	add	x0, x0, #0x980
  4003b0:	940016dc 	bl	405f20 <__deregister_frame_info>
  4003b4:	52800020 	mov	w0, #0x1                   	// #1
  4003b8:	39288260 	strb	w0, [x19, #2592]
  4003bc:	f9400bf3 	ldr	x19, [sp, #16]
  4003c0:	a8c27bfd 	ldp	x29, x30, [sp], #32
  4003c4:	d65f03c0 	ret

00000000004003c8 <frame_dummy>:
  4003c8:	90000280 	adrp	x0, 450000 <_nl_locale_subfreeres+0xe0>
  4003cc:	f9434000 	ldr	x0, [x0, #1664]
  4003d0:	b4000140 	cbz	x0, 4003f8 <frame_dummy+0x30>
  4003d4:	a9bf7bfd 	stp	x29, x30, [sp, #-16]!
  4003d8:	b0000401 	adrp	x1, 481000 <cached_result.11763>
  4003dc:	d0000340 	adrp	x0, 46a000 <__PRETTY_FUNCTION__.12054+0x128>
  4003e0:	9128a021 	add	x1, x1, #0xa28
  4003e4:	910003fd 	mov	x29, sp
  4003e8:	91260000 	add	x0, x0, #0x980
  4003ec:	9400161f 	bl	405c68 <__register_frame_info>
  4003f0:	a8c17bfd 	ldp	x29, x30, [sp], #16
  4003f4:	17ffffd5 	b	400348 <register_tm_clones>
  4003f8:	17ffffd4 	b	400348 <register_tm_clones>

00000000004003fc <main>:
  4003fc:	a9bd7bfd 	stp	x29, x30, [sp, #-48]!
  400400:	910003fd 	mov	x29, sp
  400404:	b9001fa0 	str	w0, [x29, #28]
  400408:	f9000ba1 	str	x1, [x29, #16]
  40040c:	b0000400 	adrp	x0, 481000 <cached_result.11763>
  400410:	91296000 	add	x0, x0, #0xa58
  400414:	9400018d 	bl	400a48 <__pthread_mutex_lock>
  400418:	b9402fa0 	ldr	w0, [x29, #44]
  40041c:	11000400 	add	w0, w0, #0x1
  400420:	b9002fa0 	str	w0, [x29, #44]
  400424:	b0000400 	adrp	x0, 481000 <cached_result.11763>
  400428:	91296000 	add	x0, x0, #0xa58
  40042c:	94000391 	bl	401270 <__pthread_mutex_unlock>
  400430:	52800000 	mov	w0, #0x0                   	// #0
  400434:	a8c37bfd 	ldp	x29, x30, [sp], #48
  400438:	d65f03c0 	ret
  40043c:	00000000 	.inst	0x00000000 ; undefined

0000000000400440 <__pthread_mutex_lock_full>:
  400440:	d53bd045 	mrs	x5, tpidr_el0
  400444:	a9bc7bfd 	stp	x29, x30, [sp, #-64]!
  400448:	d12000a4 	sub	x4, x5, #0x800
  40044c:	91044082 	add	x2, x4, #0x110
  400450:	910003fd 	mov	x29, sp
  400454:	b9401001 	ldr	w1, [x0, #16]
  400458:	a90153f3 	stp	x19, x20, [sp, #16]
  40045c:	aa0003f3 	mov	x19, x0
  400460:	b940d054 	ldr	w20, [x2, #208]
  400464:	12001820 	and	w0, w1, #0x7f
  400468:	f90013f5 	str	x21, [sp, #32]
  40046c:	71008c1f 	cmp	w0, #0x23
  400470:	5400050c 	b.gt	400510 <__pthread_mutex_lock_full+0xd0>
  400474:	7100801f 	cmp	w0, #0x20
  400478:	54000d6a 	b.ge	400624 <__pthread_mutex_lock_full+0x1e4>  // b.tcont
  40047c:	51004000 	sub	w0, w0, #0x10
  400480:	71000c1f 	cmp	w0, #0x3
  400484:	54000c48 	b.hi	40060c <__pthread_mutex_lock_full+0x1cc>  // b.pmore
  400488:	91008266 	add	x6, x19, #0x20
  40048c:	f9007846 	str	x6, [x2, #240]
  400490:	b9400260 	ldr	w0, [x19]
  400494:	52800001 	mov	w1, #0x0                   	// #0
  400498:	35001960 	cbnz	w0, 4007c4 <__pthread_mutex_lock_full+0x384>
  40049c:	2a010283 	orr	w3, w20, w1
  4004a0:	885ffe62 	ldaxr	w2, [x19]
  4004a4:	35000062 	cbnz	w2, 4004b0 <__pthread_mutex_lock_full+0x70>
  4004a8:	88077e63 	stxr	w7, w3, [x19]
  4004ac:	35ffffa7 	cbnz	w7, 4004a0 <__pthread_mutex_lock_full+0x60>
  4004b0:	350018c2 	cbnz	w2, 4007c8 <__pthread_mutex_lock_full+0x388>
  4004b4:	b9400a62 	ldr	w2, [x19, #8]
  4004b8:	321f77e1 	mov	w1, #0x7ffffffe            	// #2147483646
  4004bc:	6b01005f 	cmp	w2, w1
  4004c0:	540022e0 	b.eq	40091c <__pthread_mutex_lock_full+0x4dc>  // b.none
  4004c4:	52800020 	mov	w0, #0x1                   	// #1
  4004c8:	b9000660 	str	w0, [x19, #4]
  4004cc:	91044084 	add	x4, x4, #0x110
  4004d0:	f9407080 	ldr	x0, [x4, #224]
  4004d4:	d11840a5 	sub	x5, x5, #0x610
  4004d8:	927ff801 	and	x1, x0, #0xfffffffffffffffe
  4004dc:	f81f8026 	stur	x6, [x1, #-8]
  4004e0:	a9018265 	stp	x5, x0, [x19, #24]
  4004e4:	f9007086 	str	x6, [x4, #224]
  4004e8:	f900789f 	str	xzr, [x4, #240]
  4004ec:	b9400e60 	ldr	w0, [x19, #12]
  4004f0:	52800015 	mov	w21, #0x0                   	// #0
  4004f4:	11000400 	add	w0, w0, #0x1
  4004f8:	29010274 	stp	w20, w0, [x19, #8]
  4004fc:	2a1503e0 	mov	w0, w21
  400500:	f94013f5 	ldr	x21, [sp, #32]
  400504:	a94153f3 	ldp	x19, x20, [sp, #16]
  400508:	a8c47bfd 	ldp	x29, x30, [sp], #64
  40050c:	d65f03c0 	ret
  400510:	7100c01f 	cmp	w0, #0x30
  400514:	540007cb 	b.lt	40060c <__pthread_mutex_lock_full+0x1cc>  // b.tstop
  400518:	7100cc1f 	cmp	w0, #0x33
  40051c:	5400084d 	b.le	400624 <__pthread_mutex_lock_full+0x1e4>
  400520:	51010000 	sub	w0, w0, #0x40
  400524:	71000c1f 	cmp	w0, #0x3
  400528:	54000728 	b.hi	40060c <__pthread_mutex_lock_full+0x1cc>  // b.pmore
  40052c:	a902dfb6 	stp	x22, x23, [x29, #40]
  400530:	12800017 	mov	w23, #0xffffffff            	// #-1
  400534:	b9400a60 	ldr	w0, [x19, #8]
  400538:	b9400262 	ldr	w2, [x19]
  40053c:	6b14001f 	cmp	w0, w20
  400540:	54000f40 	b.eq	400728 <__pthread_mutex_lock_full+0x2e8>  // b.none
  400544:	d503201f 	nop
  400548:	53137c56 	lsr	w22, w2, #19
  40054c:	940004b7 	bl	401828 <__pthread_current_priority>
  400550:	6b0002df 	cmp	w22, w0
  400554:	5400128b 	b.lt	4007a4 <__pthread_mutex_lock_full+0x364>  // b.tstop
  400558:	2a1603e1 	mov	w1, w22
  40055c:	2a1703e0 	mov	w0, w23
  400560:	940003ca 	bl	401488 <__pthread_tpp_change_priority>
  400564:	2a0003f5 	mov	w21, w0
  400568:	35001120 	cbnz	w0, 40078c <__pthread_mutex_lock_full+0x34c>
  40056c:	530d32c4 	lsl	w4, w22, #19
  400570:	32000086 	orr	w6, w4, #0x1
  400574:	885ffe60 	ldaxr	w0, [x19]
  400578:	6b04001f 	cmp	w0, w4
  40057c:	54000061 	b.ne	400588 <__pthread_mutex_lock_full+0x148>  // b.any
  400580:	88017e66 	stxr	w1, w6, [x19]
  400584:	35ffff81 	cbnz	w1, 400574 <__pthread_mutex_lock_full+0x134>
  400588:	6b00009f 	cmp	w4, w0
  40058c:	54000960 	b.eq	4006b8 <__pthread_mutex_lock_full+0x278>  // b.none
  400590:	321f0085 	orr	w5, w4, #0x2
  400594:	93407ca7 	sxtw	x7, w5
  400598:	14000012 	b	4005e0 <__pthread_mutex_lock_full+0x1a0>
  40059c:	6b00009f 	cmp	w4, w0
  4005a0:	54000120 	b.eq	4005c4 <__pthread_mutex_lock_full+0x184>  // b.none
  4005a4:	b9401261 	ldr	w1, [x19, #16]
  4005a8:	aa1303e0 	mov	x0, x19
  4005ac:	aa0703e2 	mov	x2, x7
  4005b0:	d2800003 	mov	x3, #0x0                   	// #0
  4005b4:	2a2103e1 	mvn	w1, w1
  4005b8:	d2800c48 	mov	x8, #0x62                  	// #98
  4005bc:	12190021 	and	w1, w1, #0x80
  4005c0:	d4000001 	svc	#0x0
  4005c4:	885ffe60 	ldaxr	w0, [x19]
  4005c8:	6b04001f 	cmp	w0, w4
  4005cc:	54000061 	b.ne	4005d8 <__pthread_mutex_lock_full+0x198>  // b.any
  4005d0:	88017e65 	stxr	w1, w5, [x19]
  4005d4:	35ffff81 	cbnz	w1, 4005c4 <__pthread_mutex_lock_full+0x184>
  4005d8:	6b00009f 	cmp	w4, w0
  4005dc:	540006e0 	b.eq	4006b8 <__pthread_mutex_lock_full+0x278>  // b.none
  4005e0:	885ffe60 	ldaxr	w0, [x19]
  4005e4:	6b06001f 	cmp	w0, w6
  4005e8:	54000061 	b.ne	4005f4 <__pthread_mutex_lock_full+0x1b4>  // b.any
  4005ec:	88017e65 	stxr	w1, w5, [x19]
  4005f0:	35ffff81 	cbnz	w1, 4005e0 <__pthread_mutex_lock_full+0x1a0>
  4005f4:	120d3001 	and	w1, w0, #0xfff80000
  4005f8:	2a0003e2 	mov	w2, w0
  4005fc:	6b04003f 	cmp	w1, w4
  400600:	54fffce0 	b.eq	40059c <__pthread_mutex_lock_full+0x15c>  // b.none
  400604:	2a1603f7 	mov	w23, w22
  400608:	17ffffd0 	b	400548 <__pthread_mutex_lock_full+0x108>
  40060c:	528002d5 	mov	w21, #0x16                  	// #22
  400610:	2a1503e0 	mov	w0, w21
  400614:	a94153f3 	ldp	x19, x20, [sp, #16]
  400618:	f94013f5 	ldr	x21, [sp, #32]
  40061c:	a8c47bfd 	ldp	x29, x30, [sp], #64
  400620:	d65f03c0 	ret
  400624:	12000426 	and	w6, w1, #0x3
  400628:	121c0027 	and	w7, w1, #0x10
  40062c:	37200521 	tbnz	w1, #4, 4006d0 <__pthread_mutex_lock_full+0x290>
  400630:	b9400260 	ldr	w0, [x19]
  400634:	12007400 	and	w0, w0, #0x3fffffff
  400638:	6b14001f 	cmp	w0, w20
  40063c:	54001280 	b.eq	40088c <__pthread_mutex_lock_full+0x44c>  // b.none
  400640:	885ffe60 	ldaxr	w0, [x19]
  400644:	35000060 	cbnz	w0, 400650 <__pthread_mutex_lock_full+0x210>
  400648:	88017e74 	stxr	w1, w20, [x19]
  40064c:	35ffffa1 	cbnz	w1, 400640 <__pthread_mutex_lock_full+0x200>
  400650:	34000480 	cbz	w0, 4006e0 <__pthread_mutex_lock_full+0x2a0>
  400654:	d28000c1 	mov	x1, #0x6                   	// #6
  400658:	350000c7 	cbnz	w7, 400670 <__pthread_mutex_lock_full+0x230>
  40065c:	b9401261 	ldr	w1, [x19, #16]
  400660:	528010c0 	mov	w0, #0x86                  	// #134
  400664:	12190021 	and	w1, w1, #0x80
  400668:	4a000021 	eor	w1, w1, w0
  40066c:	93407c21 	sxtw	x1, w1
  400670:	aa1303e0 	mov	x0, x19
  400674:	d2800022 	mov	x2, #0x1                   	// #1
  400678:	d2800003 	mov	x3, #0x0                   	// #0
  40067c:	d2800c48 	mov	x8, #0x62                  	// #98
  400680:	d4000001 	svc	#0x0
  400684:	3140041f 	cmn	w0, #0x1, lsl #12
  400688:	540006a9 	b.ls	40075c <__pthread_mutex_lock_full+0x31c>  // b.plast
  40068c:	121a7801 	and	w1, w0, #0xffffffdf
  400690:	31008c3f 	cmn	w1, #0x23
  400694:	54000641 	b.ne	40075c <__pthread_mutex_lock_full+0x31c>  // b.any
  400698:	31008c1f 	cmn	w0, #0x23
  40069c:	54001520 	b.eq	400940 <__pthread_mutex_lock_full+0x500>  // b.none
  4006a0:	710000ff 	cmp	w7, #0x0
  4006a4:	3a431800 	ccmn	w0, #0x3, #0x0, ne  // ne = any
  4006a8:	54001bc0 	b.eq	400a20 <__pthread_mutex_lock_full+0x5e0>  // b.none
  4006ac:	94000357 	bl	401408 <__pause_nocancel>
  4006b0:	94000356 	bl	401408 <__pause_nocancel>
  4006b4:	17fffffe 	b	4006ac <__pthread_mutex_lock_full+0x26c>
  4006b8:	b9400a60 	ldr	w0, [x19, #8]
  4006bc:	350015a0 	cbnz	w0, 400970 <__pthread_mutex_lock_full+0x530>
  4006c0:	a942dfb6 	ldp	x22, x23, [x29, #40]
  4006c4:	52800020 	mov	w0, #0x1                   	// #1
  4006c8:	b9000660 	str	w0, [x19, #4]
  4006cc:	17ffff88 	b	4004ec <__pthread_mutex_lock_full+0xac>
  4006d0:	91008260 	add	x0, x19, #0x20
  4006d4:	b2400000 	orr	x0, x0, #0x1
  4006d8:	f9010080 	str	x0, [x4, #512]
  4006dc:	17ffffd5 	b	400630 <__pthread_mutex_lock_full+0x1f0>
  4006e0:	34ffff27 	cbz	w7, 4006c4 <__pthread_mutex_lock_full+0x284>
  4006e4:	b9400a61 	ldr	w1, [x19, #8]
  4006e8:	321f77e0 	mov	w0, #0x7ffffffe            	// #2147483646
  4006ec:	6b00003f 	cmp	w1, w0
  4006f0:	54001840 	b.eq	4009f8 <__pthread_mutex_lock_full+0x5b8>  // b.none
  4006f4:	52800020 	mov	w0, #0x1                   	// #1
  4006f8:	b9000660 	str	w0, [x19, #4]
  4006fc:	91044084 	add	x4, x4, #0x110
  400700:	f9407081 	ldr	x1, [x4, #224]
  400704:	91008260 	add	x0, x19, #0x20
  400708:	d11840a5 	sub	x5, x5, #0x610
  40070c:	927ff822 	and	x2, x1, #0xfffffffffffffffe
  400710:	f81f8040 	stur	x0, [x2, #-8]
  400714:	a9018665 	stp	x5, x1, [x19, #24]
  400718:	b2400000 	orr	x0, x0, #0x1
  40071c:	f9007080 	str	x0, [x4, #224]
  400720:	f900789f 	str	xzr, [x4, #240]
  400724:	17ffff72 	b	4004ec <__pthread_mutex_lock_full+0xac>
  400728:	12000421 	and	w1, w1, #0x3
  40072c:	7100083f 	cmp	w1, #0x2
  400730:	54000c60 	b.eq	4008bc <__pthread_mutex_lock_full+0x47c>  // b.none
  400734:	7100043f 	cmp	w1, #0x1
  400738:	54fff081 	b.ne	400548 <__pthread_mutex_lock_full+0x108>  // b.any
  40073c:	b9400660 	ldr	w0, [x19, #4]
  400740:	6b17001f 	cmp	w0, w23
  400744:	540014e0 	b.eq	4009e0 <__pthread_mutex_lock_full+0x5a0>  // b.none
  400748:	11000400 	add	w0, w0, #0x1
  40074c:	52800015 	mov	w21, #0x0                   	// #0
  400750:	a942dfb6 	ldp	x22, x23, [x29, #40]
  400754:	b9000660 	str	w0, [x19, #4]
  400758:	17ffff69 	b	4004fc <__pthread_mutex_lock_full+0xbc>
  40075c:	b9400260 	ldr	w0, [x19]
  400760:	35000667 	cbnz	w7, 40082c <__pthread_mutex_lock_full+0x3ec>
  400764:	36f7fb00 	tbz	w0, #30, 4006c4 <__pthread_mutex_lock_full+0x284>
  400768:	90000283 	adrp	x3, 450000 <_nl_locale_subfreeres+0xe0>
  40076c:	90000281 	adrp	x1, 450000 <_nl_locale_subfreeres+0xe0>
  400770:	90000280 	adrp	x0, 450000 <_nl_locale_subfreeres+0xe0>
  400774:	a902dfb6 	stp	x22, x23, [x29, #40]
  400778:	911fa063 	add	x3, x3, #0x7e8
  40077c:	52803642 	mov	w2, #0x1b2                 	// #434
  400780:	911a2021 	add	x1, x1, #0x688
  400784:	911d6000 	add	x0, x0, #0x758
  400788:	940018c6 	bl	406aa0 <__assert_fail>
  40078c:	2a1503e0 	mov	w0, w21
  400790:	f94013f5 	ldr	x21, [sp, #32]
  400794:	a942dfb6 	ldp	x22, x23, [x29, #40]
  400798:	a94153f3 	ldp	x19, x20, [sp, #16]
  40079c:	a8c47bfd 	ldp	x29, x30, [sp], #64
  4007a0:	d65f03c0 	ret
  4007a4:	528002d5 	mov	w21, #0x16                  	// #22
  4007a8:	310006ff 	cmn	w23, #0x1
  4007ac:	54ffff00 	b.eq	40078c <__pthread_mutex_lock_full+0x34c>  // b.none
  4007b0:	2a1703e0 	mov	w0, w23
  4007b4:	12800001 	mov	w1, #0xffffffff            	// #-1
  4007b8:	94000334 	bl	401488 <__pthread_tpp_change_priority>
  4007bc:	a942dfb6 	ldp	x22, x23, [x29, #40]
  4007c0:	17ffff4f 	b	4004fc <__pthread_mutex_lock_full+0xbc>
  4007c4:	2a0003e2 	mov	w2, w0
  4007c8:	12020055 	and	w21, w2, #0x40000000
  4007cc:	36f007e2 	tbz	w2, #30, 4008c8 <__pthread_mutex_lock_full+0x488>
  4007d0:	12010043 	and	w3, w2, #0x80000000
  4007d4:	2a010280 	orr	w0, w20, w1
  4007d8:	2a000063 	orr	w3, w3, w0
  4007dc:	885ffe60 	ldaxr	w0, [x19]
  4007e0:	6b02001f 	cmp	w0, w2
  4007e4:	54000061 	b.ne	4007f0 <__pthread_mutex_lock_full+0x3b0>  // b.any
  4007e8:	88077e63 	stxr	w7, w3, [x19]
  4007ec:	35ffff87 	cbnz	w7, 4007dc <__pthread_mutex_lock_full+0x39c>
  4007f0:	6b00005f 	cmp	w2, w0
  4007f4:	54ffe521 	b.ne	400498 <__pthread_mutex_lock_full+0x58>  // b.any
  4007f8:	b2607be0 	mov	x0, #0x7fffffff00000000    	// #9223372032559808512
  4007fc:	f2800020 	movk	x0, #0x1
  400800:	f8004260 	stur	x0, [x19, #4]
  400804:	91044084 	add	x4, x4, #0x110
  400808:	f9407080 	ldr	x0, [x4, #224]
  40080c:	d11840a5 	sub	x5, x5, #0x610
  400810:	927ff801 	and	x1, x0, #0xfffffffffffffffe
  400814:	f81f8026 	stur	x6, [x1, #-8]
  400818:	a9018265 	stp	x5, x0, [x19, #24]
  40081c:	f9007086 	str	x6, [x4, #224]
  400820:	52801055 	mov	w21, #0x82                  	// #130
  400824:	f900789f 	str	xzr, [x4, #240]
  400828:	17ffff35 	b	4004fc <__pthread_mutex_lock_full+0xbc>
  40082c:	36f7f5c0 	tbz	w0, #30, 4006e4 <__pthread_mutex_lock_full+0x2a4>
  400830:	b9400260 	ldr	w0, [x19]
  400834:	12017801 	and	w1, w0, #0xbfffffff
  400838:	885ffe62 	ldaxr	w2, [x19]
  40083c:	6b00005f 	cmp	w2, w0
  400840:	54000061 	b.ne	40084c <__pthread_mutex_lock_full+0x40c>  // b.any
  400844:	88037e61 	stxr	w3, w1, [x19]
  400848:	35ffff83 	cbnz	w3, 400838 <__pthread_mutex_lock_full+0x3f8>
  40084c:	54ffff21 	b.ne	400830 <__pthread_mutex_lock_full+0x3f0>  // b.any
  400850:	b2607be0 	mov	x0, #0x7fffffff00000000    	// #9223372032559808512
  400854:	f2800020 	movk	x0, #0x1
  400858:	f8004260 	stur	x0, [x19, #4]
  40085c:	91044084 	add	x4, x4, #0x110
  400860:	f9407081 	ldr	x1, [x4, #224]
  400864:	91008260 	add	x0, x19, #0x20
  400868:	d11840a5 	sub	x5, x5, #0x610
  40086c:	927ff822 	and	x2, x1, #0xfffffffffffffffe
  400870:	f81f8040 	stur	x0, [x2, #-8]
  400874:	a9018665 	stp	x5, x1, [x19, #24]
  400878:	b2400000 	orr	x0, x0, #0x1
  40087c:	f9007080 	str	x0, [x4, #224]
  400880:	52801055 	mov	w21, #0x82                  	// #130
  400884:	f900789f 	str	xzr, [x4, #240]
  400888:	17ffff1d 	b	4004fc <__pthread_mutex_lock_full+0xbc>
  40088c:	710008df 	cmp	w6, #0x2
  400890:	54000ae0 	b.eq	4009ec <__pthread_mutex_lock_full+0x5ac>  // b.none
  400894:	710004df 	cmp	w6, #0x1
  400898:	54ffed41 	b.ne	400640 <__pthread_mutex_lock_full+0x200>  // b.any
  40089c:	b9400660 	ldr	w0, [x19, #4]
  4008a0:	f901009f 	str	xzr, [x4, #512]
  4008a4:	3100041f 	cmn	w0, #0x1
  4008a8:	540009e0 	b.eq	4009e4 <__pthread_mutex_lock_full+0x5a4>  // b.none
  4008ac:	11000400 	add	w0, w0, #0x1
  4008b0:	52800015 	mov	w21, #0x0                   	// #0
  4008b4:	b9000660 	str	w0, [x19, #4]
  4008b8:	17ffff11 	b	4004fc <__pthread_mutex_lock_full+0xbc>
  4008bc:	52800475 	mov	w21, #0x23                  	// #35
  4008c0:	a942dfb6 	ldp	x22, x23, [x29, #40]
  4008c4:	17ffff0e 	b	4004fc <__pthread_mutex_lock_full+0xbc>
  4008c8:	12007440 	and	w0, w2, #0x3fffffff
  4008cc:	6b14001f 	cmp	w0, w20
  4008d0:	540006e0 	b.eq	4009ac <__pthread_mutex_lock_full+0x56c>  // b.none
  4008d4:	37f80122 	tbnz	w2, #31, 4008f8 <__pthread_mutex_lock_full+0x4b8>
  4008d8:	32010040 	orr	w0, w2, #0x80000000
  4008dc:	885ffe63 	ldaxr	w3, [x19]
  4008e0:	6b02007f 	cmp	w3, w2
  4008e4:	54000061 	b.ne	4008f0 <__pthread_mutex_lock_full+0x4b0>  // b.any
  4008e8:	88077e60 	stxr	w7, w0, [x19]
  4008ec:	35ffff87 	cbnz	w7, 4008dc <__pthread_mutex_lock_full+0x49c>
  4008f0:	2a0003e2 	mov	w2, w0
  4008f4:	54000101 	b.ne	400914 <__pthread_mutex_lock_full+0x4d4>  // b.any
  4008f8:	aa1303e0 	mov	x0, x19
  4008fc:	d2800001 	mov	x1, #0x0                   	// #0
  400900:	93407c42 	sxtw	x2, w2
  400904:	d2800003 	mov	x3, #0x0                   	// #0
  400908:	d2800c48 	mov	x8, #0x62                  	// #98
  40090c:	d4000001 	svc	#0x0
  400910:	52b00001 	mov	w1, #0x80000000            	// #-2147483648
  400914:	b9400260 	ldr	w0, [x19]
  400918:	17fffee0 	b	400498 <__pthread_mutex_lock_full+0x58>
  40091c:	b900067f 	str	wzr, [x19, #4]
  400920:	885f7e61 	ldxr	w1, [x19]
  400924:	8802fe60 	stlxr	w2, w0, [x19]
  400928:	35ffffc2 	cbnz	w2, 400920 <__pthread_mutex_lock_full+0x4e0>
  40092c:	7100043f 	cmp	w1, #0x1
  400930:	5400030c 	b.gt	400990 <__pthread_mutex_lock_full+0x550>
  400934:	52801075 	mov	w21, #0x83                  	// #131
  400938:	f901009f 	str	xzr, [x4, #512]
  40093c:	17fffef0 	b	4004fc <__pthread_mutex_lock_full+0xbc>
  400940:	510004c6 	sub	w6, w6, #0x1
  400944:	710004df 	cmp	w6, #0x1
  400948:	54ffeb28 	b.hi	4006ac <__pthread_mutex_lock_full+0x26c>  // b.pmore
  40094c:	90000283 	adrp	x3, 450000 <_nl_locale_subfreeres+0xe0>
  400950:	90000281 	adrp	x1, 450000 <_nl_locale_subfreeres+0xe0>
  400954:	90000280 	adrp	x0, 450000 <_nl_locale_subfreeres+0xe0>
  400958:	a902dfb6 	stp	x22, x23, [x29, #40]
  40095c:	911fa063 	add	x3, x3, #0x7e8
  400960:	528034c2 	mov	w2, #0x1a6                 	// #422
  400964:	911a2021 	add	x1, x1, #0x688
  400968:	911a8000 	add	x0, x0, #0x6a0
  40096c:	9400184d 	bl	406aa0 <__assert_fail>
  400970:	90000283 	adrp	x3, 450000 <_nl_locale_subfreeres+0xe0>
  400974:	90000281 	adrp	x1, 450000 <_nl_locale_subfreeres+0xe0>
  400978:	90000280 	adrp	x0, 450000 <_nl_locale_subfreeres+0xe0>
  40097c:	911fa063 	add	x3, x3, #0x7e8
  400980:	52804882 	mov	w2, #0x244                 	// #580
  400984:	911a2021 	add	x1, x1, #0x688
  400988:	911e2000 	add	x0, x0, #0x788
  40098c:	94001845 	bl	406aa0 <__assert_fail>
  400990:	d2800021 	mov	x1, #0x1                   	// #1
  400994:	aa1303e0 	mov	x0, x19
  400998:	aa0103e2 	mov	x2, x1
  40099c:	d2800003 	mov	x3, #0x0                   	// #0
  4009a0:	d2800c48 	mov	x8, #0x62                  	// #98
  4009a4:	d4000001 	svc	#0x0
  4009a8:	17ffffe3 	b	400934 <__pthread_mutex_lock_full+0x4f4>
  4009ac:	b9401260 	ldr	w0, [x19, #16]
  4009b0:	12001800 	and	w0, w0, #0x7f
  4009b4:	7100481f 	cmp	w0, #0x12
  4009b8:	540001a0 	b.eq	4009ec <__pthread_mutex_lock_full+0x5ac>  // b.none
  4009bc:	7100441f 	cmp	w0, #0x11
  4009c0:	54fff8a1 	b.ne	4008d4 <__pthread_mutex_lock_full+0x494>  // b.any
  4009c4:	b9400660 	ldr	w0, [x19, #4]
  4009c8:	f901009f 	str	xzr, [x4, #512]
  4009cc:	3100041f 	cmn	w0, #0x1
  4009d0:	540000a0 	b.eq	4009e4 <__pthread_mutex_lock_full+0x5a4>  // b.none
  4009d4:	11000400 	add	w0, w0, #0x1
  4009d8:	b9000660 	str	w0, [x19, #4]
  4009dc:	17fffec8 	b	4004fc <__pthread_mutex_lock_full+0xbc>
  4009e0:	a942dfb6 	ldp	x22, x23, [x29, #40]
  4009e4:	52800175 	mov	w21, #0xb                   	// #11
  4009e8:	17fffec5 	b	4004fc <__pthread_mutex_lock_full+0xbc>
  4009ec:	52800475 	mov	w21, #0x23                  	// #35
  4009f0:	f901009f 	str	xzr, [x4, #512]
  4009f4:	17fffec2 	b	4004fc <__pthread_mutex_lock_full+0xbc>
  4009f8:	aa1303e0 	mov	x0, x19
  4009fc:	d28000e1 	mov	x1, #0x7                   	// #7
  400a00:	d2800002 	mov	x2, #0x0                   	// #0
  400a04:	d2800003 	mov	x3, #0x0                   	// #0
  400a08:	d2800c48 	mov	x8, #0x62                  	// #98
  400a0c:	b900067f 	str	wzr, [x19, #4]
  400a10:	d4000001 	svc	#0x0
  400a14:	52801075 	mov	w21, #0x83                  	// #131
  400a18:	f901009f 	str	xzr, [x4, #512]
  400a1c:	17fffeb8 	b	4004fc <__pthread_mutex_lock_full+0xbc>
  400a20:	90000283 	adrp	x3, 450000 <_nl_locale_subfreeres+0xe0>
  400a24:	90000281 	adrp	x1, 450000 <_nl_locale_subfreeres+0xe0>
  400a28:	90000280 	adrp	x0, 450000 <_nl_locale_subfreeres+0xe0>
  400a2c:	a902dfb6 	stp	x22, x23, [x29, #40]
  400a30:	911fa063 	add	x3, x3, #0x7e8
  400a34:	52803522 	mov	w2, #0x1a9                 	// #425
  400a38:	911a2021 	add	x1, x1, #0x688
  400a3c:	911c8000 	add	x0, x0, #0x720
  400a40:	94001818 	bl	406aa0 <__assert_fail>
  400a44:	d503201f 	nop

0000000000400a48 <__pthread_mutex_lock>:
  400a48:	b9401002 	ldr	w2, [x0, #16]
  400a4c:	52802fe1 	mov	w1, #0x17f                 	// #383
  400a50:	721e105f 	tst	w2, #0x7c
  400a54:	0a010041 	and	w1, w2, w1
  400a58:	540005a1 	b.ne	400b0c <__pthread_mutex_lock+0xc4>  // b.any
  400a5c:	a9be7bfd 	stp	x29, x30, [sp, #-32]!
  400a60:	910003fd 	mov	x29, sp
  400a64:	a90153f3 	stp	x19, x20, [sp, #16]
  400a68:	aa0003f3 	mov	x19, x0
  400a6c:	35000281 	cbnz	w1, 400abc <__pthread_mutex_lock+0x74>
  400a70:	52800020 	mov	w0, #0x1                   	// #1
  400a74:	885ffe61 	ldaxr	w1, [x19]
  400a78:	35000061 	cbnz	w1, 400a84 <__pthread_mutex_lock+0x3c>
  400a7c:	88027e60 	stxr	w2, w0, [x19]
  400a80:	35ffffa2 	cbnz	w2, 400a74 <__pthread_mutex_lock+0x2c>
  400a84:	7100003f 	cmp	w1, #0x0
  400a88:	54000441 	b.ne	400b10 <__pthread_mutex_lock+0xc8>  // b.any
  400a8c:	b9400a60 	ldr	w0, [x19, #8]
  400a90:	35000d40 	cbnz	w0, 400c38 <__pthread_mutex_lock+0x1f0>
  400a94:	d53bd054 	mrs	x20, tpidr_el0
  400a98:	d1200294 	sub	x20, x20, #0x800
  400a9c:	b9400e61 	ldr	w1, [x19, #12]
  400aa0:	b941e280 	ldr	w0, [x20, #480]
  400aa4:	11000421 	add	w1, w1, #0x1
  400aa8:	29010660 	stp	w0, w1, [x19, #8]
  400aac:	52800000 	mov	w0, #0x0                   	// #0
  400ab0:	a94153f3 	ldp	x19, x20, [sp, #16]
  400ab4:	a8c27bfd 	ldp	x29, x30, [sp], #32
  400ab8:	d65f03c0 	ret
  400abc:	12001842 	and	w2, w2, #0x7f
  400ac0:	7100045f 	cmp	w2, #0x1
  400ac4:	54000461 	b.ne	400b50 <__pthread_mutex_lock+0x108>  // b.any
  400ac8:	d53bd054 	mrs	x20, tpidr_el0
  400acc:	b9400803 	ldr	w3, [x0, #8]
  400ad0:	d1200294 	sub	x20, x20, #0x800
  400ad4:	b941e281 	ldr	w1, [x20, #480]
  400ad8:	6b01007f 	cmp	w3, w1
  400adc:	540002c0 	b.eq	400b34 <__pthread_mutex_lock+0xec>  // b.none
  400ae0:	885ffe61 	ldaxr	w1, [x19]
  400ae4:	35000061 	cbnz	w1, 400af0 <__pthread_mutex_lock+0xa8>
  400ae8:	88037e62 	stxr	w3, w2, [x19]
  400aec:	35ffffa3 	cbnz	w3, 400ae0 <__pthread_mutex_lock+0x98>
  400af0:	7100003f 	cmp	w1, #0x0
  400af4:	54000181 	b.ne	400b24 <__pthread_mutex_lock+0xdc>  // b.any
  400af8:	b9400a60 	ldr	w0, [x19, #8]
  400afc:	35000ae0 	cbnz	w0, 400c58 <__pthread_mutex_lock+0x210>
  400b00:	52800020 	mov	w0, #0x1                   	// #1
  400b04:	b9000660 	str	w0, [x19, #4]
  400b08:	17ffffe5 	b	400a9c <__pthread_mutex_lock+0x54>
  400b0c:	17fffe4d 	b	400440 <__pthread_mutex_lock_full>
  400b10:	b9401261 	ldr	w1, [x19, #16]
  400b14:	aa1303e0 	mov	x0, x19
  400b18:	12190021 	and	w1, w1, #0x80
  400b1c:	940001ef 	bl	4012d8 <__lll_lock_wait>
  400b20:	17ffffdb 	b	400a8c <__pthread_mutex_lock+0x44>
  400b24:	b9401261 	ldr	w1, [x19, #16]
  400b28:	12190021 	and	w1, w1, #0x80
  400b2c:	940001eb 	bl	4012d8 <__lll_lock_wait>
  400b30:	17fffff2 	b	400af8 <__pthread_mutex_lock+0xb0>
  400b34:	b9400400 	ldr	w0, [x0, #4]
  400b38:	3100041f 	cmn	w0, #0x1
  400b3c:	54000360 	b.eq	400ba8 <__pthread_mutex_lock+0x160>  // b.none
  400b40:	11000401 	add	w1, w0, #0x1
  400b44:	52800000 	mov	w0, #0x0                   	// #0
  400b48:	b9000661 	str	w1, [x19, #4]
  400b4c:	17ffffd9 	b	400ab0 <__pthread_mutex_lock+0x68>
  400b50:	71000c5f 	cmp	w2, #0x3
  400b54:	540002e1 	b.ne	400bb0 <__pthread_mutex_lock+0x168>  // b.any
  400b58:	d0000420 	adrp	x0, 486000 <static_slotinfo+0x320>
  400b5c:	b94a3800 	ldr	w0, [x0, #2616]
  400b60:	34fff880 	cbz	w0, 400a70 <__pthread_mutex_lock+0x28>
  400b64:	52800020 	mov	w0, #0x1                   	// #1
  400b68:	885ffe61 	ldaxr	w1, [x19]
  400b6c:	35000061 	cbnz	w1, 400b78 <__pthread_mutex_lock+0x130>
  400b70:	88027e60 	stxr	w2, w0, [x19]
  400b74:	35ffffa2 	cbnz	w2, 400b68 <__pthread_mutex_lock+0x120>
  400b78:	7100003f 	cmp	w1, #0x0
  400b7c:	540002e1 	b.ne	400bd8 <__pthread_mutex_lock+0x190>  // b.any
  400b80:	b9400a60 	ldr	w0, [x19, #8]
  400b84:	34fff880 	cbz	w0, 400a94 <__pthread_mutex_lock+0x4c>
  400b88:	90000283 	adrp	x3, 450000 <_nl_locale_subfreeres+0xe0>
  400b8c:	90000281 	adrp	x1, 450000 <_nl_locale_subfreeres+0xe0>
  400b90:	90000280 	adrp	x0, 450000 <_nl_locale_subfreeres+0xe0>
  400b94:	91202063 	add	x3, x3, #0x808
  400b98:	528011c2 	mov	w2, #0x8e                  	// #142
  400b9c:	911a2021 	add	x1, x1, #0x688
  400ba0:	911e2000 	add	x0, x0, #0x788
  400ba4:	940017bf 	bl	406aa0 <__assert_fail>
  400ba8:	52800160 	mov	w0, #0xb                   	// #11
  400bac:	17ffffc1 	b	400ab0 <__pthread_mutex_lock+0x68>
  400bb0:	d53bd040 	mrs	x0, tpidr_el0
  400bb4:	7100085f 	cmp	w2, #0x2
  400bb8:	d11bc000 	sub	x0, x0, #0x6f0
  400bbc:	b940d001 	ldr	w1, [x0, #208]
  400bc0:	54000741 	b.ne	400ca8 <__pthread_mutex_lock+0x260>  // b.any
  400bc4:	b9400a60 	ldr	w0, [x19, #8]
  400bc8:	6b00003f 	cmp	w1, w0
  400bcc:	54fff521 	b.ne	400a70 <__pthread_mutex_lock+0x28>  // b.any
  400bd0:	52800460 	mov	w0, #0x23                  	// #35
  400bd4:	17ffffb7 	b	400ab0 <__pthread_mutex_lock+0x68>
  400bd8:	b9401661 	ldr	w1, [x19, #20]
  400bdc:	52800c82 	mov	w2, #0x64                  	// #100
  400be0:	52800014 	mov	w20, #0x0                   	// #0
  400be4:	11001421 	add	w1, w1, #0x5
  400be8:	531f7821 	lsl	w1, w1, #1
  400bec:	6b02003f 	cmp	w1, w2
  400bf0:	1a82d021 	csel	w1, w1, w2, le
  400bf4:	11000694 	add	w20, w20, #0x1
  400bf8:	51000682 	sub	w2, w20, #0x1
  400bfc:	6b01005f 	cmp	w2, w1
  400c00:	540003ca 	b.ge	400c78 <__pthread_mutex_lock+0x230>  // b.tcont
  400c04:	885ffe62 	ldaxr	w2, [x19]
  400c08:	35000062 	cbnz	w2, 400c14 <__pthread_mutex_lock+0x1cc>
  400c0c:	88037e60 	stxr	w3, w0, [x19]
  400c10:	35ffffa3 	cbnz	w3, 400c04 <__pthread_mutex_lock+0x1bc>
  400c14:	7100005f 	cmp	w2, #0x0
  400c18:	54fffee1 	b.ne	400bf4 <__pthread_mutex_lock+0x1ac>  // b.any
  400c1c:	b9401661 	ldr	w1, [x19, #20]
  400c20:	52800102 	mov	w2, #0x8                   	// #8
  400c24:	4b010280 	sub	w0, w20, w1
  400c28:	1ac20c00 	sdiv	w0, w0, w2
  400c2c:	0b010000 	add	w0, w0, w1
  400c30:	b9001660 	str	w0, [x19, #20]
  400c34:	17ffffd3 	b	400b80 <__pthread_mutex_lock+0x138>
  400c38:	90000283 	adrp	x3, 450000 <_nl_locale_subfreeres+0xe0>
  400c3c:	90000281 	adrp	x1, 450000 <_nl_locale_subfreeres+0xe0>
  400c40:	90000280 	adrp	x0, 450000 <_nl_locale_subfreeres+0xe0>
  400c44:	91202063 	add	x3, x3, #0x808
  400c48:	528009e2 	mov	w2, #0x4f                  	// #79
  400c4c:	911a2021 	add	x1, x1, #0x688
  400c50:	911e2000 	add	x0, x0, #0x788
  400c54:	94001793 	bl	406aa0 <__assert_fail>
  400c58:	90000283 	adrp	x3, 450000 <_nl_locale_subfreeres+0xe0>
  400c5c:	90000281 	adrp	x1, 450000 <_nl_locale_subfreeres+0xe0>
  400c60:	90000280 	adrp	x0, 450000 <_nl_locale_subfreeres+0xe0>
  400c64:	91202063 	add	x3, x3, #0x808
  400c68:	52800e62 	mov	w2, #0x73                  	// #115
  400c6c:	911a2021 	add	x1, x1, #0x688
  400c70:	911e2000 	add	x0, x0, #0x788
  400c74:	9400178b 	bl	406aa0 <__assert_fail>
  400c78:	52800020 	mov	w0, #0x1                   	// #1
  400c7c:	885ffe61 	ldaxr	w1, [x19]
  400c80:	35000061 	cbnz	w1, 400c8c <__pthread_mutex_lock+0x244>
  400c84:	88027e60 	stxr	w2, w0, [x19]
  400c88:	35ffffa2 	cbnz	w2, 400c7c <__pthread_mutex_lock+0x234>
  400c8c:	7100003f 	cmp	w1, #0x0
  400c90:	54fffc60 	b.eq	400c1c <__pthread_mutex_lock+0x1d4>  // b.none
  400c94:	b9401261 	ldr	w1, [x19, #16]
  400c98:	aa1303e0 	mov	x0, x19
  400c9c:	12190021 	and	w1, w1, #0x80
  400ca0:	9400018e 	bl	4012d8 <__lll_lock_wait>
  400ca4:	17ffffde 	b	400c1c <__pthread_mutex_lock+0x1d4>
  400ca8:	90000283 	adrp	x3, 450000 <_nl_locale_subfreeres+0xe0>
  400cac:	90000281 	adrp	x1, 450000 <_nl_locale_subfreeres+0xe0>
  400cb0:	90000280 	adrp	x0, 450000 <_nl_locale_subfreeres+0xe0>
  400cb4:	91202063 	add	x3, x3, #0x808
  400cb8:	52801262 	mov	w2, #0x93                  	// #147
  400cbc:	911a2021 	add	x1, x1, #0x688
  400cc0:	911ea000 	add	x0, x0, #0x7a8
  400cc4:	94001777 	bl	406aa0 <__assert_fail>

0000000000400cc8 <__pthread_mutex_unlock_full>:
  400cc8:	b9401003 	ldr	w3, [x0, #16]
  400ccc:	12001862 	and	w2, w3, #0x7f
  400cd0:	71008c5f 	cmp	w2, #0x23
  400cd4:	5400026d 	b.le	400d20 <__pthread_mutex_unlock_full+0x58>
  400cd8:	7100cc5f 	cmp	w2, #0x33
  400cdc:	5400082d 	b.le	400de0 <__pthread_mutex_unlock_full+0x118>
  400ce0:	7101045f 	cmp	w2, #0x41
  400ce4:	54001880 	b.eq	400ff4 <__pthread_mutex_unlock_full+0x32c>  // b.none
  400ce8:	54000a2d 	b.le	400e2c <__pthread_mutex_unlock_full+0x164>
  400cec:	7101085f 	cmp	w2, #0x42
  400cf0:	540019c1 	b.ne	401028 <__pthread_mutex_unlock_full+0x360>  // b.any
  400cf4:	d53bd043 	mrs	x3, tpidr_el0
  400cf8:	b9400804 	ldr	w4, [x0, #8]
  400cfc:	d11bc063 	sub	x3, x3, #0x6f0
  400d00:	52800022 	mov	w2, #0x1                   	// #1
  400d04:	b940d063 	ldr	w3, [x3, #208]
  400d08:	6b03009f 	cmp	w4, w3
  400d0c:	540008c1 	b.ne	400e24 <__pthread_mutex_unlock_full+0x15c>  // b.any
  400d10:	b9400003 	ldr	w3, [x0]
  400d14:	f240487f 	tst	x3, #0x7ffff
  400d18:	540008e1 	b.ne	400e34 <__pthread_mutex_unlock_full+0x16c>  // b.any
  400d1c:	14000042 	b	400e24 <__pthread_mutex_unlock_full+0x15c>
  400d20:	7100885f 	cmp	w2, #0x22
  400d24:	540012ea 	b.ge	400f80 <__pthread_mutex_unlock_full+0x2b8>  // b.tcont
  400d28:	71004c5f 	cmp	w2, #0x13
  400d2c:	54000dcc 	b.gt	400ee4 <__pthread_mutex_unlock_full+0x21c>
  400d30:	7100485f 	cmp	w2, #0x12
  400d34:	54000baa 	b.ge	400ea8 <__pthread_mutex_unlock_full+0x1e0>  // b.tcont
  400d38:	7100405f 	cmp	w2, #0x10
  400d3c:	54000b60 	b.eq	400ea8 <__pthread_mutex_unlock_full+0x1e0>  // b.none
  400d40:	7100445f 	cmp	w2, #0x11
  400d44:	54001761 	b.ne	401030 <__pthread_mutex_unlock_full+0x368>  // b.any
  400d48:	d53bd044 	mrs	x4, tpidr_el0
  400d4c:	b9400002 	ldr	w2, [x0]
  400d50:	d1200084 	sub	x4, x4, #0x800
  400d54:	b9400805 	ldr	w5, [x0, #8]
  400d58:	12007442 	and	w2, w2, #0x3fffffff
  400d5c:	b941e083 	ldr	w3, [x4, #480]
  400d60:	6b03005f 	cmp	w2, w3
  400d64:	540018e0 	b.eq	401080 <__pthread_mutex_unlock_full+0x3b8>  // b.none
  400d68:	52800022 	mov	w2, #0x1                   	// #1
  400d6c:	6b05007f 	cmp	w3, w5
  400d70:	540005a1 	b.ne	400e24 <__pthread_mutex_unlock_full+0x15c>  // b.any
  400d74:	b9400402 	ldr	w2, [x0, #4]
  400d78:	52800003 	mov	w3, #0x0                   	// #0
  400d7c:	51000442 	sub	w2, w2, #0x1
  400d80:	b9000402 	str	w2, [x0, #4]
  400d84:	35000f82 	cbnz	w2, 400f74 <__pthread_mutex_unlock_full+0x2ac>
  400d88:	91008002 	add	x2, x0, #0x20
  400d8c:	f9010082 	str	x2, [x4, #512]
  400d90:	a9419406 	ldp	x6, x5, [x0, #24]
  400d94:	927ff8a2 	and	x2, x5, #0xfffffffffffffffe
  400d98:	f81f8046 	stur	x6, [x2, #-8]
  400d9c:	f9400c02 	ldr	x2, [x0, #24]
  400da0:	927ff842 	and	x2, x2, #0xfffffffffffffffe
  400da4:	f9000045 	str	x5, [x2]
  400da8:	b9000803 	str	w3, [x0, #8]
  400dac:	a901fc1f 	stp	xzr, xzr, [x0, #24]
  400db0:	34000081 	cbz	w1, 400dc0 <__pthread_mutex_unlock_full+0xf8>
  400db4:	b9400c01 	ldr	w1, [x0, #12]
  400db8:	51000421 	sub	w1, w1, #0x1
  400dbc:	b9000c01 	str	w1, [x0, #12]
  400dc0:	52800002 	mov	w2, #0x0                   	// #0
  400dc4:	885f7c01 	ldxr	w1, [x0]
  400dc8:	8803fc02 	stlxr	w3, w2, [x0]
  400dcc:	35ffffc3 	cbnz	w3, 400dc4 <__pthread_mutex_unlock_full+0xfc>
  400dd0:	37f818e1 	tbnz	w1, #31, 4010ec <__pthread_mutex_unlock_full+0x424>
  400dd4:	52800002 	mov	w2, #0x0                   	// #0
  400dd8:	f901009f 	str	xzr, [x4, #512]
  400ddc:	14000012 	b	400e24 <__pthread_mutex_unlock_full+0x15c>
  400de0:	7100c85f 	cmp	w2, #0x32
  400de4:	54000cea 	b.ge	400f80 <__pthread_mutex_unlock_full+0x2b8>  // b.tcont
  400de8:	7100c05f 	cmp	w2, #0x30
  400dec:	54000ca0 	b.eq	400f80 <__pthread_mutex_unlock_full+0x2b8>  // b.none
  400df0:	7100c45f 	cmp	w2, #0x31
  400df4:	540011e1 	b.ne	401030 <__pthread_mutex_unlock_full+0x368>  // b.any
  400df8:	d53bd044 	mrs	x4, tpidr_el0
  400dfc:	b9400002 	ldr	w2, [x0]
  400e00:	d1200084 	sub	x4, x4, #0x800
  400e04:	b9400806 	ldr	w6, [x0, #8]
  400e08:	12007442 	and	w2, w2, #0x3fffffff
  400e0c:	b941e085 	ldr	w5, [x4, #480]
  400e10:	6b05005f 	cmp	w2, w5
  400e14:	54001220 	b.eq	401058 <__pthread_mutex_unlock_full+0x390>  // b.none
  400e18:	52800022 	mov	w2, #0x1                   	// #1
  400e1c:	6b0600bf 	cmp	w5, w6
  400e20:	540010e0 	b.eq	40103c <__pthread_mutex_unlock_full+0x374>  // b.none
  400e24:	2a0203e0 	mov	w0, w2
  400e28:	d65f03c0 	ret
  400e2c:	7101005f 	cmp	w2, #0x40
  400e30:	54001001 	b.ne	401030 <__pthread_mutex_unlock_full+0x368>  // b.any
  400e34:	b900081f 	str	wzr, [x0, #8]
  400e38:	34000081 	cbz	w1, 400e48 <__pthread_mutex_unlock_full+0x180>
  400e3c:	b9400c01 	ldr	w1, [x0, #12]
  400e40:	51000421 	sub	w1, w1, #0x1
  400e44:	b9000c01 	str	w1, [x0, #12]
  400e48:	b9400001 	ldr	w1, [x0]
  400e4c:	120d3024 	and	w4, w1, #0xfff80000
  400e50:	885f7c02 	ldxr	w2, [x0]
  400e54:	6b01005f 	cmp	w2, w1
  400e58:	54000061 	b.ne	400e64 <__pthread_mutex_unlock_full+0x19c>  // b.any
  400e5c:	8803fc04 	stlxr	w3, w4, [x0]
  400e60:	7100007f 	cmp	w3, #0x0
  400e64:	2a0203e1 	mov	w1, w2
  400e68:	54ffff21 	b.ne	400e4c <__pthread_mutex_unlock_full+0x184>  // b.any
  400e6c:	12004841 	and	w1, w2, #0x7ffff
  400e70:	7100043f 	cmp	w1, #0x1
  400e74:	54000149 	b.ls	400e9c <__pthread_mutex_unlock_full+0x1d4>  // b.plast
  400e78:	b9401001 	ldr	w1, [x0, #16]
  400e7c:	52801025 	mov	w5, #0x81                  	// #129
  400e80:	d2800022 	mov	x2, #0x1                   	// #1
  400e84:	d2800003 	mov	x3, #0x0                   	// #0
  400e88:	12190021 	and	w1, w1, #0x80
  400e8c:	d2800c48 	mov	x8, #0x62                  	// #98
  400e90:	4a050021 	eor	w1, w1, w5
  400e94:	93407c21 	sxtw	x1, w1
  400e98:	d4000001 	svc	#0x0
  400e9c:	12800001 	mov	w1, #0xffffffff            	// #-1
  400ea0:	13137c80 	asr	w0, w4, #19
  400ea4:	14000179 	b	401488 <__pthread_tpp_change_priority>
  400ea8:	d53bd044 	mrs	x4, tpidr_el0
  400eac:	b9400003 	ldr	w3, [x0]
  400eb0:	d1200084 	sub	x4, x4, #0x800
  400eb4:	52800022 	mov	w2, #0x1                   	// #1
  400eb8:	12007465 	and	w5, w3, #0x3fffffff
  400ebc:	7100007f 	cmp	w3, #0x0
  400ec0:	b941e083 	ldr	w3, [x4, #480]
  400ec4:	7a4310a0 	ccmp	w5, w3, #0x0, ne  // ne = any
  400ec8:	54fffae1 	b.ne	400e24 <__pthread_mutex_unlock_full+0x15c>  // b.any
  400ecc:	b9400805 	ldr	w5, [x0, #8]
  400ed0:	12b00002 	mov	w2, #0x7fffffff            	// #2147483647
  400ed4:	321f77e3 	mov	w3, #0x7ffffffe            	// #2147483646
  400ed8:	6b0200bf 	cmp	w5, w2
  400edc:	1a9f0063 	csel	w3, w3, wzr, eq  // eq = none
  400ee0:	17ffffaa 	b	400d88 <__pthread_mutex_unlock_full+0xc0>
  400ee4:	7100805f 	cmp	w2, #0x20
  400ee8:	540004c0 	b.eq	400f80 <__pthread_mutex_unlock_full+0x2b8>  // b.none
  400eec:	7100845f 	cmp	w2, #0x21
  400ef0:	54000a01 	b.ne	401030 <__pthread_mutex_unlock_full+0x368>  // b.any
  400ef4:	d53bd044 	mrs	x4, tpidr_el0
  400ef8:	b9400806 	ldr	w6, [x0, #8]
  400efc:	d1200084 	sub	x4, x4, #0x800
  400f00:	52800022 	mov	w2, #0x1                   	// #1
  400f04:	b941e085 	ldr	w5, [x4, #480]
  400f08:	6b0500df 	cmp	w6, w5
  400f0c:	54fff8c1 	b.ne	400e24 <__pthread_mutex_unlock_full+0x15c>  // b.any
  400f10:	b9400402 	ldr	w2, [x0, #4]
  400f14:	51000442 	sub	w2, w2, #0x1
  400f18:	b9000402 	str	w2, [x0, #4]
  400f1c:	350002c2 	cbnz	w2, 400f74 <__pthread_mutex_unlock_full+0x2ac>
  400f20:	121c0062 	and	w2, w3, #0x10
  400f24:	52800005 	mov	w5, #0x0                   	// #0
  400f28:	b9000805 	str	w5, [x0, #8]
  400f2c:	34000081 	cbz	w1, 400f3c <__pthread_mutex_unlock_full+0x274>
  400f30:	b9400c01 	ldr	w1, [x0, #12]
  400f34:	51000421 	sub	w1, w1, #0x1
  400f38:	b9000c01 	str	w1, [x0, #12]
  400f3c:	52801005 	mov	w5, #0x80                  	// #128
  400f40:	34000b42 	cbz	w2, 4010a8 <__pthread_mutex_unlock_full+0x3e0>
  400f44:	b9400001 	ldr	w1, [x0]
  400f48:	37f80c41 	tbnz	w1, #31, 4010d0 <__pthread_mutex_unlock_full+0x408>
  400f4c:	b941e082 	ldr	w2, [x4, #480]
  400f50:	6b02003f 	cmp	w1, w2
  400f54:	54000be1 	b.ne	4010d0 <__pthread_mutex_unlock_full+0x408>  // b.any
  400f58:	885f7c02 	ldxr	w2, [x0]
  400f5c:	6b01005f 	cmp	w2, w1
  400f60:	54000061 	b.ne	400f6c <__pthread_mutex_unlock_full+0x2a4>  // b.any
  400f64:	8803fc1f 	stlxr	w3, wzr, [x0]
  400f68:	7100007f 	cmp	w3, #0x0
  400f6c:	54000ae1 	b.ne	4010c8 <__pthread_mutex_unlock_full+0x400>  // b.any
  400f70:	f901009f 	str	xzr, [x4, #512]
  400f74:	52800002 	mov	w2, #0x0                   	// #0
  400f78:	2a0203e0 	mov	w0, w2
  400f7c:	d65f03c0 	ret
  400f80:	d53bd044 	mrs	x4, tpidr_el0
  400f84:	b9400005 	ldr	w5, [x0]
  400f88:	d1200084 	sub	x4, x4, #0x800
  400f8c:	52800022 	mov	w2, #0x1                   	// #1
  400f90:	120074a6 	and	w6, w5, #0x3fffffff
  400f94:	710000bf 	cmp	w5, #0x0
  400f98:	b941e085 	ldr	w5, [x4, #480]
  400f9c:	7a4510c0 	ccmp	w6, w5, #0x0, ne  // ne = any
  400fa0:	54fff421 	b.ne	400e24 <__pthread_mutex_unlock_full+0x15c>  // b.any
  400fa4:	121c0062 	and	w2, w3, #0x10
  400fa8:	36200883 	tbz	w3, #4, 4010b8 <__pthread_mutex_unlock_full+0x3f0>
  400fac:	b9400803 	ldr	w3, [x0, #8]
  400fb0:	12b00002 	mov	w2, #0x7fffffff            	// #2147483647
  400fb4:	321f77e5 	mov	w5, #0x7ffffffe            	// #2147483646
  400fb8:	6b02007f 	cmp	w3, w2
  400fbc:	1a9f00a5 	csel	w5, w5, wzr, eq  // eq = none
  400fc0:	91008002 	add	x2, x0, #0x20
  400fc4:	b2400042 	orr	x2, x2, #0x1
  400fc8:	f9010082 	str	x2, [x4, #512]
  400fcc:	a9418c06 	ldp	x6, x3, [x0, #24]
  400fd0:	927ff862 	and	x2, x3, #0xfffffffffffffffe
  400fd4:	f81f8046 	stur	x6, [x2, #-8]
  400fd8:	f9400c02 	ldr	x2, [x0, #24]
  400fdc:	927ff842 	and	x2, x2, #0xfffffffffffffffe
  400fe0:	f9000043 	str	x3, [x2]
  400fe4:	b9401003 	ldr	w3, [x0, #16]
  400fe8:	a901fc1f 	stp	xzr, xzr, [x0, #24]
  400fec:	121c0062 	and	w2, w3, #0x10
  400ff0:	17ffffce 	b	400f28 <__pthread_mutex_unlock_full+0x260>
  400ff4:	d53bd043 	mrs	x3, tpidr_el0
  400ff8:	b9400804 	ldr	w4, [x0, #8]
  400ffc:	d11bc063 	sub	x3, x3, #0x6f0
  401000:	52800022 	mov	w2, #0x1                   	// #1
  401004:	b940d063 	ldr	w3, [x3, #208]
  401008:	6b03009f 	cmp	w4, w3
  40100c:	54fff0c1 	b.ne	400e24 <__pthread_mutex_unlock_full+0x15c>  // b.any
  401010:	b9400402 	ldr	w2, [x0, #4]
  401014:	51000442 	sub	w2, w2, #0x1
  401018:	b9000402 	str	w2, [x0, #4]
  40101c:	34fff0c2 	cbz	w2, 400e34 <__pthread_mutex_unlock_full+0x16c>
  401020:	52800002 	mov	w2, #0x0                   	// #0
  401024:	17ffffd5 	b	400f78 <__pthread_mutex_unlock_full+0x2b0>
  401028:	71010c5f 	cmp	w2, #0x43
  40102c:	54fff040 	b.eq	400e34 <__pthread_mutex_unlock_full+0x16c>  // b.none
  401030:	528002c2 	mov	w2, #0x16                  	// #22
  401034:	2a0203e0 	mov	w0, w2
  401038:	d65f03c0 	ret
  40103c:	b9400402 	ldr	w2, [x0, #4]
  401040:	52800005 	mov	w5, #0x0                   	// #0
  401044:	51000442 	sub	w2, w2, #0x1
  401048:	b9000402 	str	w2, [x0, #4]
  40104c:	34fffba2 	cbz	w2, 400fc0 <__pthread_mutex_unlock_full+0x2f8>
  401050:	52800002 	mov	w2, #0x0                   	// #0
  401054:	17ffffc9 	b	400f78 <__pthread_mutex_unlock_full+0x2b0>
  401058:	12b00002 	mov	w2, #0x7fffffff            	// #2147483647
  40105c:	6b0200df 	cmp	w6, w2
  401060:	54ffedc1 	b.ne	400e18 <__pthread_mutex_unlock_full+0x150>  // b.any
  401064:	b9400402 	ldr	w2, [x0, #4]
  401068:	51000442 	sub	w2, w2, #0x1
  40106c:	b9000402 	str	w2, [x0, #4]
  401070:	35000182 	cbnz	w2, 4010a0 <__pthread_mutex_unlock_full+0x3d8>
  401074:	362001e3 	tbz	w3, #4, 4010b0 <__pthread_mutex_unlock_full+0x3e8>
  401078:	321f77e5 	mov	w5, #0x7ffffffe            	// #2147483646
  40107c:	17ffffd1 	b	400fc0 <__pthread_mutex_unlock_full+0x2f8>
  401080:	12b00002 	mov	w2, #0x7fffffff            	// #2147483647
  401084:	6b0200bf 	cmp	w5, w2
  401088:	54ffe701 	b.ne	400d68 <__pthread_mutex_unlock_full+0xa0>  // b.any
  40108c:	b9400402 	ldr	w2, [x0, #4]
  401090:	321f77e3 	mov	w3, #0x7ffffffe            	// #2147483646
  401094:	51000442 	sub	w2, w2, #0x1
  401098:	b9000402 	str	w2, [x0, #4]
  40109c:	34ffe762 	cbz	w2, 400d88 <__pthread_mutex_unlock_full+0xc0>
  4010a0:	52801062 	mov	w2, #0x83                  	// #131
  4010a4:	17ffff60 	b	400e24 <__pthread_mutex_unlock_full+0x15c>
  4010a8:	12190065 	and	w5, w3, #0x80
  4010ac:	17ffffa6 	b	400f44 <__pthread_mutex_unlock_full+0x27c>
  4010b0:	321f77e2 	mov	w2, #0x7ffffffe            	// #2147483646
  4010b4:	d503201f 	nop
  4010b8:	b9000802 	str	w2, [x0, #8]
  4010bc:	34ffff61 	cbz	w1, 4010a8 <__pthread_mutex_unlock_full+0x3e0>
  4010c0:	52800002 	mov	w2, #0x0                   	// #0
  4010c4:	17ffff9b 	b	400f30 <__pthread_mutex_unlock_full+0x268>
  4010c8:	2a0203e1 	mov	w1, w2
  4010cc:	36fff402 	tbz	w2, #31, 400f4c <__pthread_mutex_unlock_full+0x284>
  4010d0:	528010e1 	mov	w1, #0x87                  	// #135
  4010d4:	4a0100a1 	eor	w1, w5, w1
  4010d8:	d2800c48 	mov	x8, #0x62                  	// #98
  4010dc:	93407c21 	sxtw	x1, w1
  4010e0:	d4000001 	svc	#0x0
  4010e4:	f901009f 	str	xzr, [x4, #512]
  4010e8:	17ffffa3 	b	400f74 <__pthread_mutex_unlock_full+0x2ac>
  4010ec:	d2800021 	mov	x1, #0x1                   	// #1
  4010f0:	d2800003 	mov	x3, #0x0                   	// #0
  4010f4:	aa0103e2 	mov	x2, x1
  4010f8:	d2800c48 	mov	x8, #0x62                  	// #98
  4010fc:	d4000001 	svc	#0x0
  401100:	17ffff35 	b	400dd4 <__pthread_mutex_unlock_full+0x10c>
  401104:	d503201f 	nop

0000000000401108 <__pthread_mutex_unlock_usercnt>:
  401108:	b9401003 	ldr	w3, [x0, #16]
  40110c:	52802fe4 	mov	w4, #0x17f                 	// #383
  401110:	721e1065 	ands	w5, w3, #0x7c
  401114:	0a040064 	and	w4, w3, w4
  401118:	54000241 	b.ne	401160 <__pthread_mutex_unlock_usercnt+0x58>  // b.any
  40111c:	aa0003e2 	mov	x2, x0
  401120:	2a0103e6 	mov	w6, w1
  401124:	35000204 	cbnz	w4, 401164 <__pthread_mutex_unlock_usercnt+0x5c>
  401128:	b900085f 	str	wzr, [x2, #8]
  40112c:	35000126 	cbnz	w6, 401150 <__pthread_mutex_unlock_usercnt+0x48>
  401130:	52800001 	mov	w1, #0x0                   	// #0
  401134:	885f7c40 	ldxr	w0, [x2]
  401138:	8804fc41 	stlxr	w4, w1, [x2]
  40113c:	35ffffc4 	cbnz	w4, 401134 <__pthread_mutex_unlock_usercnt+0x2c>
  401140:	7100041f 	cmp	w0, #0x1
  401144:	5400030c 	b.gt	4011a4 <__pthread_mutex_unlock_usercnt+0x9c>
  401148:	2a0503e0 	mov	w0, w5
  40114c:	d65f03c0 	ret
  401150:	b9400c40 	ldr	w0, [x2, #12]
  401154:	51000400 	sub	w0, w0, #0x1
  401158:	b9000c40 	str	w0, [x2, #12]
  40115c:	17fffff5 	b	401130 <__pthread_mutex_unlock_usercnt+0x28>
  401160:	17fffeda 	b	400cc8 <__pthread_mutex_unlock_full>
  401164:	7104009f 	cmp	w4, #0x100
  401168:	54000321 	b.ne	4011cc <__pthread_mutex_unlock_usercnt+0xc4>  // b.any
  40116c:	885f7c41 	ldxr	w1, [x2]
  401170:	8804fc45 	stlxr	w4, w5, [x2]
  401174:	35ffffc4 	cbnz	w4, 40116c <__pthread_mutex_unlock_usercnt+0x64>
  401178:	7100043f 	cmp	w1, #0x1
  40117c:	54fffe6d 	b.le	401148 <__pthread_mutex_unlock_usercnt+0x40>
  401180:	12190061 	and	w1, w3, #0x80
  401184:	52801022 	mov	w2, #0x81                  	// #129
  401188:	4a020021 	eor	w1, w1, w2
  40118c:	d2800003 	mov	x3, #0x0                   	// #0
  401190:	d2800022 	mov	x2, #0x1                   	// #1
  401194:	d2800c48 	mov	x8, #0x62                  	// #98
  401198:	93407c21 	sxtw	x1, w1
  40119c:	d4000001 	svc	#0x0
  4011a0:	17ffffea 	b	401148 <__pthread_mutex_unlock_usercnt+0x40>
  4011a4:	12190063 	and	w3, w3, #0x80
  4011a8:	52801021 	mov	w1, #0x81                  	// #129
  4011ac:	4a010061 	eor	w1, w3, w1
  4011b0:	aa0203e0 	mov	x0, x2
  4011b4:	d2800003 	mov	x3, #0x0                   	// #0
  4011b8:	d2800022 	mov	x2, #0x1                   	// #1
  4011bc:	93407c21 	sxtw	x1, w1
  4011c0:	d2800c48 	mov	x8, #0x62                  	// #98
  4011c4:	d4000001 	svc	#0x0
  4011c8:	17ffffe0 	b	401148 <__pthread_mutex_unlock_usercnt+0x40>
  4011cc:	12001861 	and	w1, w3, #0x7f
  4011d0:	7100043f 	cmp	w1, #0x1
  4011d4:	540001c1 	b.ne	40120c <__pthread_mutex_unlock_usercnt+0x104>  // b.any
  4011d8:	d53bd040 	mrs	x0, tpidr_el0
  4011dc:	b9400844 	ldr	w4, [x2, #8]
  4011e0:	d11bc000 	sub	x0, x0, #0x6f0
  4011e4:	b940d000 	ldr	w0, [x0, #208]
  4011e8:	6b00009f 	cmp	w4, w0
  4011ec:	54000060 	b.eq	4011f8 <__pthread_mutex_unlock_usercnt+0xf0>  // b.none
  4011f0:	52800025 	mov	w5, #0x1                   	// #1
  4011f4:	17ffffd5 	b	401148 <__pthread_mutex_unlock_usercnt+0x40>
  4011f8:	b9400440 	ldr	w0, [x2, #4]
  4011fc:	51000400 	sub	w0, w0, #0x1
  401200:	b9000440 	str	w0, [x2, #4]
  401204:	34fff920 	cbz	w0, 401128 <__pthread_mutex_unlock_usercnt+0x20>
  401208:	17ffffd0 	b	401148 <__pthread_mutex_unlock_usercnt+0x40>
  40120c:	71000c3f 	cmp	w1, #0x3
  401210:	54fff8c0 	b.eq	401128 <__pthread_mutex_unlock_usercnt+0x20>  // b.none
  401214:	7100089f 	cmp	w4, #0x2
  401218:	54000161 	b.ne	401244 <__pthread_mutex_unlock_usercnt+0x13c>  // b.any
  40121c:	d53bd040 	mrs	x0, tpidr_el0
  401220:	b9400841 	ldr	w1, [x2, #8]
  401224:	d11bc000 	sub	x0, x0, #0x6f0
  401228:	b940d000 	ldr	w0, [x0, #208]
  40122c:	6b00003f 	cmp	w1, w0
  401230:	54fffe01 	b.ne	4011f0 <__pthread_mutex_unlock_usercnt+0xe8>  // b.any
  401234:	b9400040 	ldr	w0, [x2]
  401238:	35fff780 	cbnz	w0, 401128 <__pthread_mutex_unlock_usercnt+0x20>
  40123c:	52800025 	mov	w5, #0x1                   	// #1
  401240:	17ffffc2 	b	401148 <__pthread_mutex_unlock_usercnt+0x40>
  401244:	a9bf7bfd 	stp	x29, x30, [sp, #-16]!
  401248:	f0000263 	adrp	x3, 450000 <_nl_locale_subfreeres+0xe0>
  40124c:	f0000261 	adrp	x1, 450000 <_nl_locale_subfreeres+0xe0>
  401250:	f0000260 	adrp	x0, 450000 <_nl_locale_subfreeres+0xe0>
  401254:	910003fd 	mov	x29, sp
  401258:	91218063 	add	x3, x3, #0x860
  40125c:	52800a82 	mov	w2, #0x54                  	// #84
  401260:	91208021 	add	x1, x1, #0x820
  401264:	9120e000 	add	x0, x0, #0x838
  401268:	9400160e 	bl	406aa0 <__assert_fail>
  40126c:	d503201f 	nop

0000000000401270 <__pthread_mutex_unlock>:
  401270:	52800021 	mov	w1, #0x1                   	// #1
  401274:	17ffffa5 	b	401108 <__pthread_mutex_unlock_usercnt>

0000000000401278 <__lll_lock_wait_private>:
  401278:	b9400001 	ldr	w1, [x0]
  40127c:	aa0003e4 	mov	x4, x0
  401280:	7100083f 	cmp	w1, #0x2
  401284:	540001c0 	b.eq	4012bc <__lll_lock_wait_private+0x44>  // b.none
  401288:	52800045 	mov	w5, #0x2                   	// #2
  40128c:	14000007 	b	4012a8 <__lll_lock_wait_private+0x30>
  401290:	aa0403e0 	mov	x0, x4
  401294:	d2801001 	mov	x1, #0x80                  	// #128
  401298:	d2800042 	mov	x2, #0x2                   	// #2
  40129c:	d2800003 	mov	x3, #0x0                   	// #0
  4012a0:	d2800c48 	mov	x8, #0x62                  	// #98
  4012a4:	d4000001 	svc	#0x0
  4012a8:	885ffc80 	ldaxr	w0, [x4]
  4012ac:	88017c85 	stxr	w1, w5, [x4]
  4012b0:	35ffffc1 	cbnz	w1, 4012a8 <__lll_lock_wait_private+0x30>
  4012b4:	35fffee0 	cbnz	w0, 401290 <__lll_lock_wait_private+0x18>
  4012b8:	d65f03c0 	ret
  4012bc:	d2801001 	mov	x1, #0x80                  	// #128
  4012c0:	d2800042 	mov	x2, #0x2                   	// #2
  4012c4:	d2800003 	mov	x3, #0x0                   	// #0
  4012c8:	d2800c48 	mov	x8, #0x62                  	// #98
  4012cc:	d4000001 	svc	#0x0
  4012d0:	17ffffee 	b	401288 <__lll_lock_wait_private+0x10>
  4012d4:	d503201f 	nop

00000000004012d8 <__lll_lock_wait>:
  4012d8:	2a0103e5 	mov	w5, w1
  4012dc:	b9400001 	ldr	w1, [x0]
  4012e0:	aa0003e4 	mov	x4, x0
  4012e4:	7100083f 	cmp	w1, #0x2
  4012e8:	540000e1 	b.ne	401304 <__lll_lock_wait+0x2c>  // b.any
  4012ec:	521900a1 	eor	w1, w5, #0x80
  4012f0:	d2800042 	mov	x2, #0x2                   	// #2
  4012f4:	d2800003 	mov	x3, #0x0                   	// #0
  4012f8:	d2800c48 	mov	x8, #0x62                  	// #98
  4012fc:	93407c21 	sxtw	x1, w1
  401300:	d4000001 	svc	#0x0
  401304:	521900a5 	eor	w5, w5, #0x80
  401308:	52800046 	mov	w6, #0x2                   	// #2
  40130c:	93407ca5 	sxtw	x5, w5
  401310:	14000007 	b	40132c <__lll_lock_wait+0x54>
  401314:	aa0403e0 	mov	x0, x4
  401318:	aa0503e1 	mov	x1, x5
  40131c:	d2800042 	mov	x2, #0x2                   	// #2
  401320:	d2800003 	mov	x3, #0x0                   	// #0
  401324:	d2800c48 	mov	x8, #0x62                  	// #98
  401328:	d4000001 	svc	#0x0
  40132c:	885ffc80 	ldaxr	w0, [x4]
  401330:	88017c86 	stxr	w1, w6, [x4]
  401334:	35ffffc1 	cbnz	w1, 40132c <__lll_lock_wait+0x54>
  401338:	35fffee0 	cbnz	w0, 401314 <__lll_lock_wait+0x3c>
  40133c:	d65f03c0 	ret

0000000000401340 <__libc_pause>:
  401340:	a9be7bfd 	stp	x29, x30, [sp, #-32]!
  401344:	b0000420 	adrp	x0, 486000 <static_slotinfo+0x320>
  401348:	910003fd 	mov	x29, sp
  40134c:	b94a3c00 	ldr	w0, [x0, #2620]
  401350:	f9000bf3 	str	x19, [sp, #16]
  401354:	350001c0 	cbnz	w0, 40138c <__libc_pause+0x4c>
  401358:	d2800000 	mov	x0, #0x0                   	// #0
  40135c:	d2800001 	mov	x1, #0x0                   	// #0
  401360:	d2800002 	mov	x2, #0x0                   	// #0
  401364:	d2800003 	mov	x3, #0x0                   	// #0
  401368:	d2800928 	mov	x8, #0x49                  	// #73
  40136c:	d4000001 	svc	#0x0
  401370:	b140041f 	cmn	x0, #0x1, lsl #12
  401374:	540002e8 	b.hi	4013d0 <__libc_pause+0x90>  // b.pmore
  401378:	2a0003f3 	mov	w19, w0
  40137c:	2a1303e0 	mov	w0, w19
  401380:	f9400bf3 	ldr	x19, [sp, #16]
  401384:	a8c27bfd 	ldp	x29, x30, [sp], #32
  401388:	d65f03c0 	ret
  40138c:	9400017f 	bl	401988 <__pthread_enable_asynccancel>
  401390:	2a0003e4 	mov	w4, w0
  401394:	d2800001 	mov	x1, #0x0                   	// #0
  401398:	d2800000 	mov	x0, #0x0                   	// #0
  40139c:	d2800002 	mov	x2, #0x0                   	// #0
  4013a0:	d2800003 	mov	x3, #0x0                   	// #0
  4013a4:	d2800928 	mov	x8, #0x49                  	// #73
  4013a8:	d4000001 	svc	#0x0
  4013ac:	b140041f 	cmn	x0, #0x1, lsl #12
  4013b0:	540001e8 	b.hi	4013ec <__libc_pause+0xac>  // b.pmore
  4013b4:	2a0003f3 	mov	w19, w0
  4013b8:	2a0403e0 	mov	w0, w4
  4013bc:	94000197 	bl	401a18 <__pthread_disable_asynccancel>
  4013c0:	2a1303e0 	mov	w0, w19
  4013c4:	f9400bf3 	ldr	x19, [sp, #16]
  4013c8:	a8c27bfd 	ldp	x29, x30, [sp], #32
  4013cc:	d65f03c0 	ret
  4013d0:	d00003e1 	adrp	x1, 47f000 <__FRAME_END__+0x10164>
  4013d4:	f947a821 	ldr	x1, [x1, #3920]
  4013d8:	d53bd042 	mrs	x2, tpidr_el0
  4013dc:	4b0003e0 	neg	w0, w0
  4013e0:	12800013 	mov	w19, #0xffffffff            	// #-1
  4013e4:	b8216840 	str	w0, [x2, x1]
  4013e8:	17ffffe5 	b	40137c <__libc_pause+0x3c>
  4013ec:	d00003e1 	adrp	x1, 47f000 <__FRAME_END__+0x10164>
  4013f0:	f947a821 	ldr	x1, [x1, #3920]
  4013f4:	d53bd042 	mrs	x2, tpidr_el0
  4013f8:	4b0003e0 	neg	w0, w0
  4013fc:	12800013 	mov	w19, #0xffffffff            	// #-1
  401400:	b8216840 	str	w0, [x2, x1]
  401404:	17ffffed 	b	4013b8 <__libc_pause+0x78>

0000000000401408 <__pause_nocancel>:
  401408:	d2800000 	mov	x0, #0x0                   	// #0
  40140c:	d2800001 	mov	x1, #0x0                   	// #0
  401410:	d2800002 	mov	x2, #0x0                   	// #0
  401414:	d2800003 	mov	x3, #0x0                   	// #0
  401418:	d2800928 	mov	x8, #0x49                  	// #73
  40141c:	d4000001 	svc	#0x0
  401420:	b140041f 	cmn	x0, #0x1, lsl #12
  401424:	54000048 	b.hi	40142c <__pause_nocancel+0x24>  // b.pmore
  401428:	d65f03c0 	ret
  40142c:	d00003e1 	adrp	x1, 47f000 <__FRAME_END__+0x10164>
  401430:	f947a821 	ldr	x1, [x1, #3920]
  401434:	d53bd042 	mrs	x2, tpidr_el0
  401438:	4b0003e3 	neg	w3, w0
  40143c:	12800000 	mov	w0, #0xffffffff            	// #-1
  401440:	b8216843 	str	w3, [x2, x1]
  401444:	d65f03c0 	ret

0000000000401448 <__init_sched_fifo_prio>:
  401448:	a9be7bfd 	stp	x29, x30, [sp, #-32]!
  40144c:	52800020 	mov	w0, #0x1                   	// #1
  401450:	910003fd 	mov	x29, sp
  401454:	f9000bf3 	str	x19, [sp, #16]
  401458:	94006fde 	bl	41d3d0 <__sched_get_priority_max>
  40145c:	f00003f3 	adrp	x19, 480000 <_GLOBAL_OFFSET_TABLE_+0xc0>
  401460:	9100a273 	add	x19, x19, #0x28
  401464:	b9000260 	str	w0, [x19]
  401468:	91001273 	add	x19, x19, #0x4
  40146c:	52800020 	mov	w0, #0x1                   	// #1
  401470:	94006fe0 	bl	41d3f0 <__sched_get_priority_min>
  401474:	b9000260 	str	w0, [x19]
  401478:	f9400bf3 	ldr	x19, [sp, #16]
  40147c:	a8c27bfd 	ldp	x29, x30, [sp], #32
  401480:	d65f03c0 	ret
  401484:	d503201f 	nop

0000000000401488 <__pthread_tpp_change_priority>:
  401488:	a9b97bfd 	stp	x29, x30, [sp, #-112]!
  40148c:	910003fd 	mov	x29, sp
  401490:	a90573fb 	stp	x27, x28, [sp, #80]
  401494:	d53bd05b 	mrs	x27, tpidr_el0
  401498:	a9046bf9 	stp	x25, x26, [sp, #64]
  40149c:	d120037a 	sub	x26, x27, #0x800
  4014a0:	a9025bf5 	stp	x21, x22, [sp, #32]
  4014a4:	d00003f9 	adrp	x25, 47f000 <__FRAME_END__+0x10164>
  4014a8:	f00003f5 	adrp	x21, 480000 <_GLOBAL_OFFSET_TABLE_+0xc0>
  4014ac:	9128c322 	add	x2, x25, #0xa30
  4014b0:	9100a2b5 	add	x21, x21, #0x28
  4014b4:	a90153f3 	stp	x19, x20, [sp, #16]
  4014b8:	a90363f7 	stp	x23, x24, [sp, #48]
  4014bc:	2a0003f4 	mov	w20, w0
  4014c0:	2a0103f3 	mov	w19, w1
  4014c4:	f9400040 	ldr	x0, [x2]
  4014c8:	f90037a0 	str	x0, [x29, #104]
  4014cc:	d2800000 	mov	x0, #0x0                   	// #0
  4014d0:	910012bc 	add	x28, x21, #0x4
  4014d4:	f942e357 	ldr	x23, [x26, #1472]
  4014d8:	b9400398 	ldr	w24, [x28]
  4014dc:	b94002b6 	ldr	w22, [x21]
  4014e0:	b4000ef7 	cbz	x23, 4016bc <__pthread_tpp_change_priority+0x234>
  4014e4:	3100067f 	cmn	w19, #0x1
  4014e8:	54000e40 	b.eq	4016b0 <__pthread_tpp_change_priority+0x228>  // b.none
  4014ec:	6b13031f 	cmp	w24, w19
  4014f0:	7a53d2c1 	ccmp	w22, w19, #0x1, le
  4014f4:	5400166b 	b.lt	4017c0 <__pthread_tpp_change_priority+0x338>  // b.tstop
  4014f8:	3100069f 	cmn	w20, #0x1
  4014fc:	54000ca0 	b.eq	401690 <__pthread_tpp_change_priority+0x208>  // b.none
  401500:	6b14031f 	cmp	w24, w20
  401504:	7a54d2c1 	ccmp	w22, w20, #0x1, le
  401508:	540016cb 	b.lt	4017e0 <__pthread_tpp_change_priority+0x358>  // b.tstop
  40150c:	3100067f 	cmn	w19, #0x1
  401510:	b94002f6 	ldr	w22, [x23]
  401514:	54000680 	b.eq	4015e4 <__pthread_tpp_change_priority+0x15c>  // b.none
  401518:	4b180260 	sub	w0, w19, w24
  40151c:	8b20cae0 	add	x0, x23, w0, sxtw #2
  401520:	b9400401 	ldr	w1, [x0, #4]
  401524:	3100043f 	cmn	w1, #0x1
  401528:	54000c00 	b.eq	4016a8 <__pthread_tpp_change_priority+0x220>  // b.none
  40152c:	11000421 	add	w1, w1, #0x1
  401530:	b9000401 	str	w1, [x0, #4]
  401534:	6b1302df 	cmp	w22, w19
  401538:	5400052a 	b.ge	4015dc <__pthread_tpp_change_priority+0x154>  // b.tcont
  40153c:	3100069f 	cmn	w20, #0x1
  401540:	54001601 	b.ne	401800 <__pthread_tpp_change_priority+0x378>  // b.any
  401544:	d11bc378 	sub	x24, x27, #0x6f0
  401548:	52800020 	mov	w0, #0x1                   	// #1
  40154c:	91106314 	add	x20, x24, #0x418
  401550:	885ffe81 	ldaxr	w1, [x20]
  401554:	35000061 	cbnz	w1, 401560 <__pthread_tpp_change_priority+0xd8>
  401558:	88027e80 	stxr	w2, w0, [x20]
  40155c:	35ffffa2 	cbnz	w2, 401550 <__pthread_tpp_change_priority+0xc8>
  401560:	7100003f 	cmp	w1, #0x0
  401564:	54001221 	b.ne	4017a8 <__pthread_tpp_change_priority+0x320>  // b.any
  401568:	91044355 	add	x21, x26, #0x110
  40156c:	b9410ea0 	ldr	w0, [x21, #268]
  401570:	b90002f3 	str	w19, [x23]
  401574:	36280c20 	tbz	w0, #5, 4016f8 <__pthread_tpp_change_priority+0x270>
  401578:	36300e60 	tbz	w0, #6, 401744 <__pthread_tpp_change_priority+0x2bc>
  40157c:	b9454340 	ldr	w0, [x26, #1344]
  401580:	b90063a0 	str	w0, [x29, #96]
  401584:	6b13001f 	cmp	w0, w19
  401588:	54000cea 	b.ge	401724 <__pthread_tpp_change_priority+0x29c>  // b.tcont
  40158c:	b90063b3 	str	w19, [x29, #96]
  401590:	b941e340 	ldr	w0, [x26, #480]
  401594:	910183a2 	add	x2, x29, #0x60
  401598:	b9454741 	ldr	w1, [x26, #1348]
  40159c:	94006f75 	bl	41d370 <__sched_setscheduler>
  4015a0:	37f80ca0 	tbnz	w0, #31, 401734 <__pthread_tpp_change_priority+0x2ac>
  4015a4:	52800015 	mov	w21, #0x0                   	// #0
  4015a8:	52800001 	mov	w1, #0x0                   	// #0
  4015ac:	885f7e80 	ldxr	w0, [x20]
  4015b0:	8802fe81 	stlxr	w2, w1, [x20]
  4015b4:	35ffffc2 	cbnz	w2, 4015ac <__pthread_tpp_change_priority+0x124>
  4015b8:	7100041f 	cmp	w0, #0x1
  4015bc:	5400050d 	b.le	40165c <__pthread_tpp_change_priority+0x1d4>
  4015c0:	aa1403e0 	mov	x0, x20
  4015c4:	d2801021 	mov	x1, #0x81                  	// #129
  4015c8:	d2800022 	mov	x2, #0x1                   	// #1
  4015cc:	d2800003 	mov	x3, #0x0                   	// #0
  4015d0:	d2800c48 	mov	x8, #0x62                  	// #98
  4015d4:	d4000001 	svc	#0x0
  4015d8:	14000021 	b	40165c <__pthread_tpp_change_priority+0x1d4>
  4015dc:	3100069f 	cmn	w20, #0x1
  4015e0:	540003c0 	b.eq	401658 <__pthread_tpp_change_priority+0x1d0>  // b.none
  4015e4:	4b180281 	sub	w1, w20, w24
  4015e8:	8b21cae1 	add	x1, x23, w1, sxtw #2
  4015ec:	b9400420 	ldr	w0, [x1, #4]
  4015f0:	51000400 	sub	w0, w0, #0x1
  4015f4:	b9000420 	str	w0, [x1, #4]
  4015f8:	35000300 	cbnz	w0, 401658 <__pthread_tpp_change_priority+0x1d0>
  4015fc:	6b16029f 	cmp	w20, w22
  401600:	7a540260 	ccmp	w19, w20, #0x0, eq  // eq = none
  401604:	540002aa 	b.ge	401658 <__pthread_tpp_change_priority+0x1d0>  // b.tcont
  401608:	51000693 	sub	w19, w20, #0x1
  40160c:	6b13031f 	cmp	w24, w19
  401610:	540001ec 	b.gt	40164c <__pthread_tpp_change_priority+0x1c4>
  401614:	4b180260 	sub	w0, w19, w24
  401618:	8b20cae0 	add	x0, x23, w0, sxtw #2
  40161c:	b9400400 	ldr	w0, [x0, #4]
  401620:	35000160 	cbnz	w0, 40164c <__pthread_tpp_change_priority+0x1c4>
  401624:	51000a80 	sub	w0, w20, #0x2
  401628:	4b180000 	sub	w0, w0, w24
  40162c:	8b20cae0 	add	x0, x23, w0, sxtw #2
  401630:	91001000 	add	x0, x0, #0x4
  401634:	14000003 	b	401640 <__pthread_tpp_change_priority+0x1b8>
  401638:	b85fc401 	ldr	w1, [x0], #-4
  40163c:	35000081 	cbnz	w1, 40164c <__pthread_tpp_change_priority+0x1c4>
  401640:	51000673 	sub	w19, w19, #0x1
  401644:	6b13031f 	cmp	w24, w19
  401648:	54ffff8d 	b.le	401638 <__pthread_tpp_change_priority+0x1b0>
  40164c:	6b16027f 	cmp	w19, w22
  401650:	54fff7a1 	b.ne	401544 <__pthread_tpp_change_priority+0xbc>  // b.any
  401654:	d503201f 	nop
  401658:	52800015 	mov	w21, #0x0                   	// #0
  40165c:	9128c321 	add	x1, x25, #0xa30
  401660:	2a1503e0 	mov	w0, w21
  401664:	f94037a2 	ldr	x2, [x29, #104]
  401668:	f9400021 	ldr	x1, [x1]
  40166c:	ca010041 	eor	x1, x2, x1
  401670:	b5000a61 	cbnz	x1, 4017bc <__pthread_tpp_change_priority+0x334>
  401674:	a94153f3 	ldp	x19, x20, [sp, #16]
  401678:	a9425bf5 	ldp	x21, x22, [sp, #32]
  40167c:	a94363f7 	ldp	x23, x24, [sp, #48]
  401680:	a9446bf9 	ldp	x25, x26, [sp, #64]
  401684:	a94573fb 	ldp	x27, x28, [sp, #80]
  401688:	a8c77bfd 	ldp	x29, x30, [sp], #112
  40168c:	d65f03c0 	ret
  401690:	4b180260 	sub	w0, w19, w24
  401694:	b94002f6 	ldr	w22, [x23]
  401698:	8b20cae0 	add	x0, x23, w0, sxtw #2
  40169c:	b9400401 	ldr	w1, [x0, #4]
  4016a0:	3100043f 	cmn	w1, #0x1
  4016a4:	54fff441 	b.ne	40152c <__pthread_tpp_change_priority+0xa4>  // b.any
  4016a8:	52800175 	mov	w21, #0xb                   	// #11
  4016ac:	17ffffec 	b	40165c <__pthread_tpp_change_priority+0x1d4>
  4016b0:	3100069f 	cmn	w20, #0x1
  4016b4:	54fff261 	b.ne	401500 <__pthread_tpp_change_priority+0x78>  // b.any
  4016b8:	17ffffe8 	b	401658 <__pthread_tpp_change_priority+0x1d0>
  4016bc:	3100071f 	cmn	w24, #0x1
  4016c0:	3a411ac4 	ccmn	w22, #0x1, #0x4, ne  // ne = any
  4016c4:	54000580 	b.eq	401774 <__pthread_tpp_change_priority+0x2ec>  // b.none
  4016c8:	4b1802c0 	sub	w0, w22, w24
  4016cc:	d2800082 	mov	x2, #0x4                   	// #4
  4016d0:	11000400 	add	w0, w0, #0x1
  4016d4:	d2800021 	mov	x1, #0x1                   	// #1
  4016d8:	8b20c840 	add	x0, x2, w0, sxtw #2
  4016dc:	94005fef 	bl	419698 <__calloc>
  4016e0:	aa0003f7 	mov	x23, x0
  4016e4:	b4000680 	cbz	x0, 4017b4 <__pthread_tpp_change_priority+0x32c>
  4016e8:	51000700 	sub	w0, w24, #0x1
  4016ec:	f902e357 	str	x23, [x26, #1472]
  4016f0:	b90002e0 	str	w0, [x23]
  4016f4:	17ffff7c 	b	4014e4 <__pthread_tpp_change_priority+0x5c>
  4016f8:	b940d2a0 	ldr	w0, [x21, #208]
  4016fc:	9110c301 	add	x1, x24, #0x430
  401700:	94006f14 	bl	41d350 <__sched_getparam>
  401704:	34000400 	cbz	w0, 401784 <__pthread_tpp_change_priority+0x2fc>
  401708:	d00003e0 	adrp	x0, 47f000 <__FRAME_END__+0x10164>
  40170c:	f947a800 	ldr	x0, [x0, #3920]
  401710:	b9410ea1 	ldr	w1, [x21, #268]
  401714:	b8606b75 	ldr	w21, [x27, x0]
  401718:	36300181 	tbz	w1, #6, 401748 <__pthread_tpp_change_priority+0x2c0>
  40171c:	35fff475 	cbnz	w21, 4015a8 <__pthread_tpp_change_priority+0x120>
  401720:	17ffff97 	b	40157c <__pthread_tpp_change_priority+0xf4>
  401724:	6b16001f 	cmp	w0, w22
  401728:	54fff34b 	b.lt	401590 <__pthread_tpp_change_priority+0x108>  // b.tstop
  40172c:	52800015 	mov	w21, #0x0                   	// #0
  401730:	17ffff9e 	b	4015a8 <__pthread_tpp_change_priority+0x120>
  401734:	d00003e0 	adrp	x0, 47f000 <__FRAME_END__+0x10164>
  401738:	f947a800 	ldr	x0, [x0, #3920]
  40173c:	b8606b75 	ldr	w21, [x27, x0]
  401740:	17ffff9a 	b	4015a8 <__pthread_tpp_change_priority+0x120>
  401744:	52800015 	mov	w21, #0x0                   	// #0
  401748:	91044357 	add	x23, x26, #0x110
  40174c:	b940d2e0 	ldr	w0, [x23, #208]
  401750:	94006f10 	bl	41d390 <__sched_getscheduler>
  401754:	b90436e0 	str	w0, [x23, #1076]
  401758:	3100041f 	cmn	w0, #0x1
  40175c:	540001c0 	b.eq	401794 <__pthread_tpp_change_priority+0x30c>  // b.none
  401760:	b9410ee0 	ldr	w0, [x23, #268]
  401764:	321a0000 	orr	w0, w0, #0x40
  401768:	b9010ee0 	str	w0, [x23, #268]
  40176c:	35fff1f5 	cbnz	w21, 4015a8 <__pthread_tpp_change_priority+0x120>
  401770:	17ffff83 	b	40157c <__pthread_tpp_change_priority+0xf4>
  401774:	97ffff35 	bl	401448 <__init_sched_fifo_prio>
  401778:	b9400398 	ldr	w24, [x28]
  40177c:	b94002b6 	ldr	w22, [x21]
  401780:	17ffffd2 	b	4016c8 <__pthread_tpp_change_priority+0x240>
  401784:	b9410ea0 	ldr	w0, [x21, #268]
  401788:	321b0001 	orr	w1, w0, #0x20
  40178c:	b9010ea1 	str	w1, [x21, #268]
  401790:	17ffff7a 	b	401578 <__pthread_tpp_change_priority+0xf0>
  401794:	d00003e0 	adrp	x0, 47f000 <__FRAME_END__+0x10164>
  401798:	f947a800 	ldr	x0, [x0, #3920]
  40179c:	b8606b75 	ldr	w21, [x27, x0]
  4017a0:	35fff055 	cbnz	w21, 4015a8 <__pthread_tpp_change_priority+0x120>
  4017a4:	17ffff76 	b	40157c <__pthread_tpp_change_priority+0xf4>
  4017a8:	aa1403e0 	mov	x0, x20
  4017ac:	97fffeb3 	bl	401278 <__lll_lock_wait_private>
  4017b0:	17ffff6e 	b	401568 <__pthread_tpp_change_priority+0xe0>
  4017b4:	52800195 	mov	w21, #0xc                   	// #12
  4017b8:	17ffffa9 	b	40165c <__pthread_tpp_change_priority+0x1d4>
  4017bc:	94007839 	bl	41f8a0 <__stack_chk_fail>
  4017c0:	f0000263 	adrp	x3, 450000 <_nl_locale_subfreeres+0xe0>
  4017c4:	f0000261 	adrp	x1, 450000 <_nl_locale_subfreeres+0xe0>
  4017c8:	f0000260 	adrp	x0, 450000 <_nl_locale_subfreeres+0xe0>
  4017cc:	9124e063 	add	x3, x3, #0x938
  4017d0:	52800a82 	mov	w2, #0x54                  	// #84
  4017d4:	91220021 	add	x1, x1, #0x880
  4017d8:	91222000 	add	x0, x0, #0x888
  4017dc:	940014b1 	bl	406aa0 <__assert_fail>
  4017e0:	f0000263 	adrp	x3, 450000 <_nl_locale_subfreeres+0xe0>
  4017e4:	f0000261 	adrp	x1, 450000 <_nl_locale_subfreeres+0xe0>
  4017e8:	f0000260 	adrp	x0, 450000 <_nl_locale_subfreeres+0xe0>
  4017ec:	9124e063 	add	x3, x3, #0x938
  4017f0:	52800ae2 	mov	w2, #0x57                  	// #87
  4017f4:	91220021 	add	x1, x1, #0x880
  4017f8:	91236000 	add	x0, x0, #0x8d8
  4017fc:	940014a9 	bl	406aa0 <__assert_fail>
  401800:	4b180281 	sub	w1, w20, w24
  401804:	8b21cae1 	add	x1, x23, w1, sxtw #2
  401808:	b9400420 	ldr	w0, [x1, #4]
  40180c:	51000400 	sub	w0, w0, #0x1
  401810:	b9000420 	str	w0, [x1, #4]
  401814:	35ffe980 	cbnz	w0, 401544 <__pthread_tpp_change_priority+0xbc>
  401818:	6b1402df 	cmp	w22, w20
  40181c:	7a540260 	ccmp	w19, w20, #0x0, eq  // eq = none
  401820:	54ffef4b 	b.lt	401608 <__pthread_tpp_change_priority+0x180>  // b.tstop
  401824:	17ffff48 	b	401544 <__pthread_tpp_change_priority+0xbc>

0000000000401828 <__pthread_current_priority>:
  401828:	a9bd7bfd 	stp	x29, x30, [sp, #-48]!
  40182c:	d53bd041 	mrs	x1, tpidr_el0
  401830:	910003fd 	mov	x29, sp
  401834:	f90013f5 	str	x21, [sp, #32]
  401838:	d1200035 	sub	x21, x1, #0x800
  40183c:	b9421ea0 	ldr	w0, [x21, #540]
  401840:	121b0400 	and	w0, w0, #0x60
  401844:	7101801f 	cmp	w0, #0x60
  401848:	540005a0 	b.eq	4018fc <__pthread_current_priority+0xd4>  // b.none
  40184c:	a90153b3 	stp	x19, x20, [x29, #16]
  401850:	d11bc033 	sub	x19, x1, #0x6f0
  401854:	91106274 	add	x20, x19, #0x418
  401858:	52800020 	mov	w0, #0x1                   	// #1
  40185c:	f90017b6 	str	x22, [x29, #40]
  401860:	885ffe81 	ldaxr	w1, [x20]
  401864:	35000061 	cbnz	w1, 401870 <__pthread_current_priority+0x48>
  401868:	88027e80 	stxr	w2, w0, [x20]
  40186c:	35ffffa2 	cbnz	w2, 401860 <__pthread_current_priority+0x38>
  401870:	7100003f 	cmp	w1, #0x0
  401874:	540007a1 	b.ne	401968 <__pthread_current_priority+0x140>  // b.any
  401878:	910442b6 	add	x22, x21, #0x110
  40187c:	b9410ec0 	ldr	w0, [x22, #268]
  401880:	362801e0 	tbz	w0, #5, 4018bc <__pthread_current_priority+0x94>
  401884:	36300460 	tbz	w0, #6, 401910 <__pthread_current_priority+0xe8>
  401888:	b94542a4 	ldr	w4, [x21, #1344]
  40188c:	52800001 	mov	w1, #0x0                   	// #0
  401890:	885f7e80 	ldxr	w0, [x20]
  401894:	8802fe81 	stlxr	w2, w1, [x20]
  401898:	35ffffc2 	cbnz	w2, 401890 <__pthread_current_priority+0x68>
  40189c:	7100041f 	cmp	w0, #0x1
  4018a0:	5400052c 	b.gt	401944 <__pthread_current_priority+0x11c>
  4018a4:	a94153b3 	ldp	x19, x20, [x29, #16]
  4018a8:	f94017b6 	ldr	x22, [x29, #40]
  4018ac:	2a0403e0 	mov	w0, w4
  4018b0:	f94013f5 	ldr	x21, [sp, #32]
  4018b4:	a8c37bfd 	ldp	x29, x30, [sp], #48
  4018b8:	d65f03c0 	ret
  4018bc:	b940d2c0 	ldr	w0, [x22, #208]
  4018c0:	9110c261 	add	x1, x19, #0x430
  4018c4:	94006ea3 	bl	41d350 <__sched_getparam>
  4018c8:	34000340 	cbz	w0, 401930 <__pthread_current_priority+0x108>
  4018cc:	b9410ec0 	ldr	w0, [x22, #268]
  4018d0:	373002c0 	tbnz	w0, #6, 401928 <__pthread_current_priority+0x100>
  4018d4:	b940d2c0 	ldr	w0, [x22, #208]
  4018d8:	94006eae 	bl	41d390 <__sched_getscheduler>
  4018dc:	b90436c0 	str	w0, [x22, #1076]
  4018e0:	3100041f 	cmn	w0, #0x1
  4018e4:	54000220 	b.eq	401928 <__pthread_current_priority+0x100>  // b.none
  4018e8:	b9410ec0 	ldr	w0, [x22, #268]
  4018ec:	12800004 	mov	w4, #0xffffffff            	// #-1
  4018f0:	321a0000 	orr	w0, w0, #0x40
  4018f4:	b9010ec0 	str	w0, [x22, #268]
  4018f8:	17ffffe5 	b	40188c <__pthread_current_priority+0x64>
  4018fc:	b94542a4 	ldr	w4, [x21, #1344]
  401900:	f94013f5 	ldr	x21, [sp, #32]
  401904:	2a0403e0 	mov	w0, w4
  401908:	a8c37bfd 	ldp	x29, x30, [sp], #48
  40190c:	d65f03c0 	ret
  401910:	910442b3 	add	x19, x21, #0x110
  401914:	b940d260 	ldr	w0, [x19, #208]
  401918:	94006e9e 	bl	41d390 <__sched_getscheduler>
  40191c:	b9043660 	str	w0, [x19, #1076]
  401920:	3100041f 	cmn	w0, #0x1
  401924:	54000281 	b.ne	401974 <__pthread_current_priority+0x14c>  // b.any
  401928:	12800004 	mov	w4, #0xffffffff            	// #-1
  40192c:	17ffffd8 	b	40188c <__pthread_current_priority+0x64>
  401930:	b9410ec0 	ldr	w0, [x22, #268]
  401934:	321b0000 	orr	w0, w0, #0x20
  401938:	b9010ec0 	str	w0, [x22, #268]
  40193c:	3737fa60 	tbnz	w0, #6, 401888 <__pthread_current_priority+0x60>
  401940:	17fffff4 	b	401910 <__pthread_current_priority+0xe8>
  401944:	aa1403e0 	mov	x0, x20
  401948:	d2801021 	mov	x1, #0x81                  	// #129
  40194c:	d2800022 	mov	x2, #0x1                   	// #1
  401950:	d2800003 	mov	x3, #0x0                   	// #0
  401954:	d2800c48 	mov	x8, #0x62                  	// #98
  401958:	d4000001 	svc	#0x0
  40195c:	a94153b3 	ldp	x19, x20, [x29, #16]
  401960:	f94017b6 	ldr	x22, [x29, #40]
  401964:	17ffffd2 	b	4018ac <__pthread_current_priority+0x84>
  401968:	aa1403e0 	mov	x0, x20
  40196c:	97fffe43 	bl	401278 <__lll_lock_wait_private>
  401970:	17ffffc2 	b	401878 <__pthread_current_priority+0x50>
  401974:	b9410e60 	ldr	w0, [x19, #268]
  401978:	b94542a4 	ldr	w4, [x21, #1344]
  40197c:	321a0000 	orr	w0, w0, #0x40
  401980:	b9010e60 	str	w0, [x19, #268]
  401984:	17ffffc2 	b	40188c <__pthread_current_priority+0x64>

0000000000401988 <__pthread_enable_asynccancel>:
  401988:	d53bd043 	mrs	x3, tpidr_el0
  40198c:	d1200065 	sub	x5, x3, #0x800
  401990:	d117a062 	sub	x2, x3, #0x5e8
  401994:	b94218a0 	ldr	w0, [x5, #536]
  401998:	321f0001 	orr	w1, w0, #0x2
  40199c:	6b01001f 	cmp	w0, w1
  4019a0:	54000180 	b.eq	4019d0 <__pthread_enable_asynccancel+0x48>  // b.none
  4019a4:	885ffc44 	ldaxr	w4, [x2]
  4019a8:	6b00009f 	cmp	w4, w0
  4019ac:	54000061 	b.ne	4019b8 <__pthread_enable_asynccancel+0x30>  // b.any
  4019b0:	88067c41 	stxr	w6, w1, [x2]
  4019b4:	35ffff86 	cbnz	w6, 4019a4 <__pthread_enable_asynccancel+0x1c>
  4019b8:	6b04001f 	cmp	w0, w4
  4019bc:	540000c1 	b.ne	4019d4 <__pthread_enable_asynccancel+0x4c>  // b.any
  4019c0:	12800884 	mov	w4, #0xffffffbb            	// #-69
  4019c4:	0a040021 	and	w1, w1, w4
  4019c8:	7100283f 	cmp	w1, #0xa
  4019cc:	54000080 	b.eq	4019dc <__pthread_enable_asynccancel+0x54>  // b.none
  4019d0:	d65f03c0 	ret
  4019d4:	2a0403e0 	mov	w0, w4
  4019d8:	17fffff0 	b	401998 <__pthread_enable_asynccancel+0x10>
  4019dc:	a9bf7bfd 	stp	x29, x30, [sp, #-16]!
  4019e0:	d1401063 	sub	x3, x3, #0x4, lsl #12
  4019e4:	92800000 	mov	x0, #0xffffffffffffffff    	// #-1
  4019e8:	910003fd 	mov	x29, sp
  4019ec:	f9029ca0 	str	x0, [x5, #1336]
  4019f0:	b97a1860 	ldr	w0, [x3, #14872]
  4019f4:	321c0001 	orr	w1, w0, #0x10
  4019f8:	885ffc44 	ldaxr	w4, [x2]
  4019fc:	6b00009f 	cmp	w4, w0
  401a00:	54000061 	b.ne	401a0c <__pthread_enable_asynccancel+0x84>  // b.any
  401a04:	88067c41 	stxr	w6, w1, [x2]
  401a08:	35ffff86 	cbnz	w6, 4019f8 <__pthread_enable_asynccancel+0x70>
  401a0c:	54ffff21 	b.ne	4019f0 <__pthread_enable_asynccancel+0x68>  // b.any
  401a10:	f94108a0 	ldr	x0, [x5, #528]
  401a14:	94000083 	bl	401c20 <__pthread_unwind>

0000000000401a18 <__pthread_disable_asynccancel>:
  401a18:	721f001f 	tst	w0, #0x2
  401a1c:	54000201 	b.ne	401a5c <__pthread_disable_asynccancel+0x44>  // b.any
  401a20:	d53bd044 	mrs	x4, tpidr_el0
  401a24:	d1200085 	sub	x5, x4, #0x800
  401a28:	d117a084 	sub	x4, x4, #0x5e8
  401a2c:	b94218a0 	ldr	w0, [x5, #536]
  401a30:	121e7802 	and	w2, w0, #0xfffffffd
  401a34:	885ffc81 	ldaxr	w1, [x4]
  401a38:	6b00003f 	cmp	w1, w0
  401a3c:	54000061 	b.ne	401a48 <__pthread_disable_asynccancel+0x30>  // b.any
  401a40:	88037c82 	stxr	w3, w2, [x4]
  401a44:	35ffff83 	cbnz	w3, 401a34 <__pthread_disable_asynccancel+0x1c>
  401a48:	6b01001f 	cmp	w0, w1
  401a4c:	54000241 	b.ne	401a94 <__pthread_disable_asynccancel+0x7c>  // b.any
  401a50:	121e0400 	and	w0, w0, #0xc
  401a54:	7100101f 	cmp	w0, #0x4
  401a58:	54000040 	b.eq	401a60 <__pthread_disable_asynccancel+0x48>  // b.none
  401a5c:	d65f03c0 	ret
  401a60:	aa0403e0 	mov	x0, x4
  401a64:	d2801001 	mov	x1, #0x80                  	// #128
  401a68:	2a0203e2 	mov	w2, w2
  401a6c:	d2800003 	mov	x3, #0x0                   	// #0
  401a70:	d2800c48 	mov	x8, #0x62                  	// #98
  401a74:	d4000001 	svc	#0x0
  401a78:	b140041f 	cmn	x0, #0x1, lsl #12
  401a7c:	54000108 	b.hi	401a9c <__pthread_disable_asynccancel+0x84>  // b.pmore
  401a80:	b94218a2 	ldr	w2, [x5, #536]
  401a84:	121e0440 	and	w0, w2, #0xc
  401a88:	7100101f 	cmp	w0, #0x4
  401a8c:	54fffea0 	b.eq	401a60 <__pthread_disable_asynccancel+0x48>  // b.none
  401a90:	d65f03c0 	ret
  401a94:	2a0103e0 	mov	w0, w1
  401a98:	17ffffe6 	b	401a30 <__pthread_disable_asynccancel+0x18>
  401a9c:	31002c1f 	cmn	w0, #0xb
  401aa0:	54ffff00 	b.eq	401a80 <__pthread_disable_asynccancel+0x68>  // b.none
  401aa4:	3100101f 	cmn	w0, #0x4
  401aa8:	54fffec0 	b.eq	401a80 <__pthread_disable_asynccancel+0x68>  // b.none
  401aac:	a9bf7bfd 	stp	x29, x30, [sp, #-16]!
  401ab0:	f0000260 	adrp	x0, 450000 <_nl_locale_subfreeres+0xe0>
  401ab4:	91256000 	add	x0, x0, #0x958
  401ab8:	910003fd 	mov	x29, sp
  401abc:	940034e3 	bl	40ee48 <__libc_fatal>

0000000000401ac0 <unwind_stop>:
  401ac0:	a9bb7bfd 	stp	x29, x30, [sp, #-80]!
  401ac4:	910003fd 	mov	x29, sp
  401ac8:	a90153f3 	stp	x19, x20, [sp, #16]
  401acc:	d53bd053 	mrs	x19, tpidr_el0
  401ad0:	d1200273 	sub	x19, x19, #0x800
  401ad4:	a9025bf5 	stp	x21, x22, [sp, #32]
  401ad8:	721c0036 	ands	w22, w1, #0x10
  401adc:	f9410674 	ldr	x20, [x19, #520]
  401ae0:	f942d275 	ldr	x21, [x19, #1440]
  401ae4:	f942d661 	ldr	x1, [x19, #1448]
  401ae8:	f9001bf7 	str	x23, [sp, #48]
  401aec:	aa0503f7 	mov	x23, x5
  401af0:	f90023f9 	str	x25, [sp, #64]
  401af4:	8b0102b5 	add	x21, x21, x1
  401af8:	aa0403f9 	mov	x25, x4
  401afc:	540002e0 	b.eq	401b58 <unwind_stop+0x98>  // b.none
  401b00:	f9001fb8 	str	x24, [x29, #56]
  401b04:	b4000634 	cbz	x20, 401bc8 <unwind_stop+0x108>
  401b08:	f94062f8 	ldr	x24, [x23, #192]
  401b0c:	aa1903e0 	mov	x0, x25
  401b10:	94000862 	bl	403c98 <_Unwind_GetCFA>
  401b14:	52800036 	mov	w22, #0x1                   	// #1
  401b18:	eb18029f 	cmp	x20, x24
  401b1c:	54000560 	b.eq	401bc8 <unwind_stop+0x108>  // b.none
  401b20:	cb150019 	sub	x25, x0, x21
  401b24:	d503201f 	nop
  401b28:	a9400281 	ldp	x1, x0, [x20]
  401b2c:	f9400e94 	ldr	x20, [x20, #24]
  401b30:	d63f0020 	blr	x1
  401b34:	eb14031f 	cmp	x24, x20
  401b38:	54000340 	b.eq	401ba0 <unwind_stop+0xe0>  // b.none
  401b3c:	35ffff76 	cbnz	w22, 401b28 <unwind_stop+0x68>
  401b40:	cb150280 	sub	x0, x20, x21
  401b44:	eb00033f 	cmp	x25, x0
  401b48:	54ffff02 	b.cs	401b28 <unwind_stop+0x68>  // b.hs, b.nlast
  401b4c:	f9401fb8 	ldr	x24, [x29, #56]
  401b50:	f9010674 	str	x20, [x19, #520]
  401b54:	1400000c 	b	401b84 <unwind_stop+0xc4>
  401b58:	aa0403e0 	mov	x0, x4
  401b5c:	9400084f 	bl	403c98 <_Unwind_GetCFA>
  401b60:	d00003e2 	adrp	x2, 47f000 <__FRAME_END__+0x10164>
  401b64:	f94036e1 	ldr	x1, [x23, #104]
  401b68:	cb150000 	sub	x0, x0, x21
  401b6c:	f9451c42 	ldr	x2, [x2, #2616]
  401b70:	ca020021 	eor	x1, x1, x2
  401b74:	cb150021 	sub	x1, x1, x21
  401b78:	eb01001f 	cmp	x0, x1
  401b7c:	54fffc22 	b.cs	401b00 <unwind_stop+0x40>  // b.hs, b.nlast
  401b80:	b50002b4 	cbnz	x20, 401bd4 <unwind_stop+0x114>
  401b84:	52800000 	mov	w0, #0x0                   	// #0
  401b88:	f9401bf7 	ldr	x23, [sp, #48]
  401b8c:	a94153f3 	ldp	x19, x20, [sp, #16]
  401b90:	a9425bf5 	ldp	x21, x22, [sp, #32]
  401b94:	f94023f9 	ldr	x25, [sp, #64]
  401b98:	a8c57bfd 	ldp	x29, x30, [sp], #80
  401b9c:	d65f03c0 	ret
  401ba0:	f9010678 	str	x24, [x19, #520]
  401ba4:	35000136 	cbnz	w22, 401bc8 <unwind_stop+0x108>
  401ba8:	f9401fb8 	ldr	x24, [x29, #56]
  401bac:	52800000 	mov	w0, #0x0                   	// #0
  401bb0:	f9401bf7 	ldr	x23, [sp, #48]
  401bb4:	a94153f3 	ldp	x19, x20, [sp, #16]
  401bb8:	a9425bf5 	ldp	x21, x22, [sp, #32]
  401bbc:	f94023f9 	ldr	x25, [sp, #64]
  401bc0:	a8c57bfd 	ldp	x29, x30, [sp], #80
  401bc4:	d65f03c0 	ret
  401bc8:	52800021 	mov	w1, #0x1                   	// #1
  401bcc:	aa1703e0 	mov	x0, x23
  401bd0:	94002494 	bl	40ae20 <__libc_longjmp>
  401bd4:	f9001fb8 	str	x24, [x29, #56]
  401bd8:	aa1903e0 	mov	x0, x25
  401bdc:	f94062f8 	ldr	x24, [x23, #192]
  401be0:	9400082e 	bl	403c98 <_Unwind_GetCFA>
  401be4:	eb18029f 	cmp	x20, x24
  401be8:	54fffe00 	b.eq	401ba8 <unwind_stop+0xe8>  // b.none
  401bec:	cb150001 	sub	x1, x0, x21
  401bf0:	cb150282 	sub	x2, x20, x21
  401bf4:	eb02003f 	cmp	x1, x2
  401bf8:	54fff942 	b.cs	401b20 <unwind_stop+0x60>  // b.hs, b.nlast
  401bfc:	f9401fb8 	ldr	x24, [x29, #56]
  401c00:	17ffffeb 	b	401bac <unwind_stop+0xec>
  401c04:	d503201f 	nop

0000000000401c08 <unwind_cleanup>:
  401c08:	a9bf7bfd 	stp	x29, x30, [sp, #-16]!
  401c0c:	f0000260 	adrp	x0, 450000 <_nl_locale_subfreeres+0xe0>
  401c10:	91264000 	add	x0, x0, #0x990
  401c14:	910003fd 	mov	x29, sp
  401c18:	9400348c 	bl	40ee48 <__libc_fatal>
  401c1c:	d503201f 	nop

0000000000401c20 <__pthread_unwind>:
  401c20:	d53bd041 	mrs	x1, tpidr_el0
  401c24:	a9bf7bfd 	stp	x29, x30, [sp, #-16]!
  401c28:	d11bc024 	sub	x4, x1, #0x6f0
  401c2c:	90000003 	adrp	x3, 401000 <__pthread_mutex_unlock_full+0x338>
  401c30:	910003fd 	mov	x29, sp
  401c34:	91302063 	add	x3, x3, #0xc08
  401c38:	aa0003e2 	mov	x2, x0
  401c3c:	f902389f 	str	xzr, [x4, #1136]
  401c40:	aa0103e0 	mov	x0, x1
  401c44:	f9023c83 	str	x3, [x4, #1144]
  401c48:	90000001 	adrp	x1, 401000 <__pthread_mutex_unlock_full+0x338>
  401c4c:	912b0021 	add	x1, x1, #0xac0
  401c50:	d10a0000 	sub	x0, x0, #0x280
  401c54:	940008ef 	bl	404010 <_Unwind_ForcedUnwind>
  401c58:	9400251e 	bl	40b0d0 <abort>
  401c5c:	d503201f 	nop

0000000000401c60 <__pthread_unwind_next>:
  401c60:	a9bf7bfd 	stp	x29, x30, [sp, #-16]!
  401c64:	910003fd 	mov	x29, sp
  401c68:	f9405c00 	ldr	x0, [x0, #184]
  401c6c:	97ffffed 	bl	401c20 <__pthread_unwind>

0000000000401c70 <read_encoded_value_with_base>:
  401c70:	12001c05 	and	w5, w0, #0xff
  401c74:	710140bf 	cmp	w5, #0x50
  401c78:	54000420 	b.eq	401cfc <read_encoded_value_with_base+0x8c>  // b.none
  401c7c:	12000ca0 	and	w0, w5, #0xf
  401c80:	7100101f 	cmp	w0, #0x4
  401c84:	54000120 	b.eq	401ca8 <read_encoded_value_with_base+0x38>  // b.none
  401c88:	54000269 	b.ls	401cd4 <read_encoded_value_with_base+0x64>  // b.plast
  401c8c:	7100281f 	cmp	w0, #0xa
  401c90:	54000800 	b.eq	401d90 <read_encoded_value_with_base+0x120>  // b.none
  401c94:	540003e9 	b.ls	401d10 <read_encoded_value_with_base+0xa0>  // b.plast
  401c98:	71002c1f 	cmp	w0, #0xb
  401c9c:	54000740 	b.eq	401d84 <read_encoded_value_with_base+0x114>  // b.none
  401ca0:	7100301f 	cmp	w0, #0xc
  401ca4:	54000821 	b.ne	401da8 <read_encoded_value_with_base+0x138>  // b.any
  401ca8:	aa0203e0 	mov	x0, x2
  401cac:	f8408404 	ldr	x4, [x0], #8
  401cb0:	b40000e4 	cbz	x4, 401ccc <read_encoded_value_with_base+0x5c>
  401cb4:	121c08a6 	and	w6, w5, #0x70
  401cb8:	710040df 	cmp	w6, #0x10
  401cbc:	9a810041 	csel	x1, x2, x1, eq  // eq = none
  401cc0:	8b010084 	add	x4, x4, x1
  401cc4:	36380045 	tbz	w5, #7, 401ccc <read_encoded_value_with_base+0x5c>
  401cc8:	f9400084 	ldr	x4, [x4]
  401ccc:	f9000064 	str	x4, [x3]
  401cd0:	d65f03c0 	ret
  401cd4:	7100041f 	cmp	w0, #0x1
  401cd8:	54000420 	b.eq	401d5c <read_encoded_value_with_base+0xec>  // b.none
  401cdc:	34fffe60 	cbz	w0, 401ca8 <read_encoded_value_with_base+0x38>
  401ce0:	7100081f 	cmp	w0, #0x2
  401ce4:	540005c0 	b.eq	401d9c <read_encoded_value_with_base+0x12c>  // b.none
  401ce8:	71000c1f 	cmp	w0, #0x3
  401cec:	540005e1 	b.ne	401da8 <read_encoded_value_with_base+0x138>  // b.any
  401cf0:	aa0203e0 	mov	x0, x2
  401cf4:	b8404404 	ldr	w4, [x0], #4
  401cf8:	17ffffee 	b	401cb0 <read_encoded_value_with_base+0x40>
  401cfc:	91001c40 	add	x0, x2, #0x7
  401d00:	927df000 	and	x0, x0, #0xfffffffffffffff8
  401d04:	f8408404 	ldr	x4, [x0], #8
  401d08:	f9000064 	str	x4, [x3]
  401d0c:	d65f03c0 	ret
  401d10:	7100241f 	cmp	w0, #0x9
  401d14:	540004a1 	b.ne	401da8 <read_encoded_value_with_base+0x138>  // b.any
  401d18:	aa0203e0 	mov	x0, x2
  401d1c:	d2800004 	mov	x4, #0x0                   	// #0
  401d20:	52800007 	mov	w7, #0x0                   	// #0
  401d24:	d503201f 	nop
  401d28:	38401408 	ldrb	w8, [x0], #1
  401d2c:	92401906 	and	x6, x8, #0x7f
  401d30:	9ac720c6 	lsl	x6, x6, x7
  401d34:	11001ce7 	add	w7, w7, #0x7
  401d38:	aa060084 	orr	x4, x4, x6
  401d3c:	373fff68 	tbnz	w8, #7, 401d28 <read_encoded_value_with_base+0xb8>
  401d40:	7100fcff 	cmp	w7, #0x3f
  401d44:	54fffb68 	b.hi	401cb0 <read_encoded_value_with_base+0x40>  // b.pmore
  401d48:	3637fb48 	tbz	w8, #6, 401cb0 <read_encoded_value_with_base+0x40>
  401d4c:	92800006 	mov	x6, #0xffffffffffffffff    	// #-1
  401d50:	9ac720c7 	lsl	x7, x6, x7
  401d54:	aa070084 	orr	x4, x4, x7
  401d58:	17ffffd7 	b	401cb4 <read_encoded_value_with_base+0x44>
  401d5c:	aa0203e0 	mov	x0, x2
  401d60:	d2800004 	mov	x4, #0x0                   	// #0
  401d64:	52800007 	mov	w7, #0x0                   	// #0
  401d68:	38401408 	ldrb	w8, [x0], #1
  401d6c:	92401906 	and	x6, x8, #0x7f
  401d70:	9ac720c6 	lsl	x6, x6, x7
  401d74:	11001ce7 	add	w7, w7, #0x7
  401d78:	aa060084 	orr	x4, x4, x6
  401d7c:	373fff68 	tbnz	w8, #7, 401d68 <read_encoded_value_with_base+0xf8>
  401d80:	17ffffcc 	b	401cb0 <read_encoded_value_with_base+0x40>
  401d84:	aa0203e0 	mov	x0, x2
  401d88:	b8804404 	ldrsw	x4, [x0], #4
  401d8c:	17ffffc9 	b	401cb0 <read_encoded_value_with_base+0x40>
  401d90:	aa0203e0 	mov	x0, x2
  401d94:	78802404 	ldrsh	x4, [x0], #2
  401d98:	17ffffc6 	b	401cb0 <read_encoded_value_with_base+0x40>
  401d9c:	aa0203e0 	mov	x0, x2
  401da0:	78402404 	ldrh	w4, [x0], #2
  401da4:	17ffffc3 	b	401cb0 <read_encoded_value_with_base+0x40>
  401da8:	a9bf7bfd 	stp	x29, x30, [sp, #-16]!
  401dac:	910003fd 	mov	x29, sp
  401db0:	940024c8 	bl	40b0d0 <abort>
  401db4:	d503201f 	nop

0000000000401db8 <base_of_encoded_value>:
  401db8:	12001c00 	and	w0, w0, #0xff
  401dbc:	7103fc1f 	cmp	w0, #0xff
  401dc0:	54000200 	b.eq	401e00 <base_of_encoded_value+0x48>  // b.none
  401dc4:	121c0800 	and	w0, w0, #0x70
  401dc8:	7100801f 	cmp	w0, #0x20
  401dcc:	54000220 	b.eq	401e10 <base_of_encoded_value+0x58>  // b.none
  401dd0:	54000129 	b.ls	401df4 <base_of_encoded_value+0x3c>  // b.plast
  401dd4:	7101001f 	cmp	w0, #0x40
  401dd8:	54000180 	b.eq	401e08 <base_of_encoded_value+0x50>  // b.none
  401ddc:	7101401f 	cmp	w0, #0x50
  401de0:	54000100 	b.eq	401e00 <base_of_encoded_value+0x48>  // b.none
  401de4:	7100c01f 	cmp	w0, #0x30
  401de8:	54000181 	b.ne	401e18 <base_of_encoded_value+0x60>  // b.any
  401dec:	f9419820 	ldr	x0, [x1, #816]
  401df0:	d65f03c0 	ret
  401df4:	34000060 	cbz	w0, 401e00 <base_of_encoded_value+0x48>
  401df8:	7100401f 	cmp	w0, #0x10
  401dfc:	540000e1 	b.ne	401e18 <base_of_encoded_value+0x60>  // b.any
  401e00:	d2800000 	mov	x0, #0x0                   	// #0
  401e04:	d65f03c0 	ret
  401e08:	f9419c20 	ldr	x0, [x1, #824]
  401e0c:	d65f03c0 	ret
  401e10:	f9419420 	ldr	x0, [x1, #808]
  401e14:	d65f03c0 	ret
  401e18:	a9bf7bfd 	stp	x29, x30, [sp, #-16]!
  401e1c:	910003fd 	mov	x29, sp
  401e20:	940024ac 	bl	40b0d0 <abort>
  401e24:	d503201f 	nop

0000000000401e28 <execute_cfa_program>:
  401e28:	f903107f 	str	xzr, [x3, #1568]
  401e2c:	eb01001f 	cmp	x0, x1
  401e30:	54003fa2 	b.cs	402624 <execute_cfa_program+0x7fc>  // b.hs, b.nlast
  401e34:	a9b97bfd 	stp	x29, x30, [sp, #-112]!
  401e38:	910003fd 	mov	x29, sp
  401e3c:	a9025bf5 	stp	x21, x22, [sp, #32]
  401e40:	aa0203f5 	mov	x21, x2
  401e44:	aa0103f6 	mov	x22, x1
  401e48:	f9418c42 	ldr	x2, [x2, #792]
  401e4c:	a90153f3 	stp	x19, x20, [sp, #16]
  401e50:	aa0303f4 	mov	x20, x3
  401e54:	f941a2a1 	ldr	x1, [x21, #832]
  401e58:	f9432463 	ldr	x3, [x3, #1608]
  401e5c:	a90363f7 	stp	x23, x24, [sp, #48]
  401e60:	a9046bf9 	stp	x25, x26, [sp, #64]
  401e64:	8b41fc41 	add	x1, x2, x1, lsr #63
  401e68:	a90573fb 	stp	x27, x28, [sp, #80]
  401e6c:	eb01007f 	cmp	x3, x1
  401e70:	540004a2 	b.cs	401f04 <execute_cfa_program+0xdc>  // b.hs, b.nlast
  401e74:	f0000277 	adrp	x23, 450000 <_nl_locale_subfreeres+0xe0>
  401e78:	9101a3ba 	add	x26, x29, #0x68
  401e7c:	9126c2f7 	add	x23, x23, #0x9b0
  401e80:	d2800019 	mov	x25, #0x0                   	// #0
  401e84:	52800038 	mov	w24, #0x1                   	// #1
  401e88:	528000bb 	mov	w27, #0x5                   	// #5
  401e8c:	d503201f 	nop
  401e90:	39400001 	ldrb	w1, [x0]
  401e94:	91000413 	add	x19, x0, #0x1
  401e98:	121a0422 	and	w2, w1, #0xc0
  401e9c:	7101005f 	cmp	w2, #0x40
  401ea0:	54000180 	b.eq	401ed0 <execute_cfa_program+0xa8>  // b.none
  401ea4:	7102005f 	cmp	w2, #0x80
  401ea8:	54000480 	b.eq	401f38 <execute_cfa_program+0x110>  // b.none
  401eac:	7103005f 	cmp	w2, #0xc0
  401eb0:	540003a0 	b.eq	401f24 <execute_cfa_program+0xfc>  // b.none
  401eb4:	7100bc3f 	cmp	w1, #0x2f
  401eb8:	54000049 	b.ls	401ec0 <execute_cfa_program+0x98>  // b.plast
  401ebc:	94002485 	bl	40b0d0 <abort>
  401ec0:	78615ae1 	ldrh	w1, [x23, w1, uxtw #1]
  401ec4:	10000062 	adr	x2, 401ed0 <execute_cfa_program+0xa8>
  401ec8:	8b21a841 	add	x1, x2, w1, sxth #2
  401ecc:	d61f0020 	br	x1
  401ed0:	f9433282 	ldr	x2, [x20, #1632]
  401ed4:	92401421 	and	x1, x1, #0x3f
  401ed8:	aa1303e0 	mov	x0, x19
  401edc:	9b020c21 	madd	x1, x1, x2, x3
  401ee0:	f9032681 	str	x1, [x20, #1608]
  401ee4:	eb0002df 	cmp	x22, x0
  401ee8:	540000e9 	b.ls	401f04 <execute_cfa_program+0xdc>  // b.plast
  401eec:	f9418ea1 	ldr	x1, [x21, #792]
  401ef0:	f941a2a2 	ldr	x2, [x21, #832]
  401ef4:	f9432683 	ldr	x3, [x20, #1608]
  401ef8:	8b42fc22 	add	x2, x1, x2, lsr #63
  401efc:	eb02007f 	cmp	x3, x2
  401f00:	54fffc83 	b.cc	401e90 <execute_cfa_program+0x68>  // b.lo, b.ul, b.last
  401f04:	910003bf 	mov	sp, x29
  401f08:	a94153f3 	ldp	x19, x20, [sp, #16]
  401f0c:	a9425bf5 	ldp	x21, x22, [sp, #32]
  401f10:	a94363f7 	ldp	x23, x24, [sp, #48]
  401f14:	a9446bf9 	ldp	x25, x26, [sp, #64]
  401f18:	a94573fb 	ldp	x27, x28, [sp, #80]
  401f1c:	a8c77bfd 	ldp	x29, x30, [sp], #112
  401f20:	d65f03c0 	ret
  401f24:	d37c1421 	ubfiz	x1, x1, #4, #6
  401f28:	aa1303e0 	mov	x0, x19
  401f2c:	8b010281 	add	x1, x20, x1
  401f30:	b900083f 	str	wzr, [x1, #8]
  401f34:	17ffffec 	b	401ee4 <execute_cfa_program+0xbc>
  401f38:	12001421 	and	w1, w1, #0x3f
  401f3c:	aa1303e0 	mov	x0, x19
  401f40:	d2800005 	mov	x5, #0x0                   	// #0
  401f44:	52800003 	mov	w3, #0x0                   	// #0
  401f48:	38401404 	ldrb	w4, [x0], #1
  401f4c:	92401882 	and	x2, x4, #0x7f
  401f50:	9ac32042 	lsl	x2, x2, x3
  401f54:	11001c63 	add	w3, w3, #0x7
  401f58:	aa0200a5 	orr	x5, x5, x2
  401f5c:	373fff64 	tbnz	w4, #7, 401f48 <execute_cfa_program+0x120>
  401f60:	f9432e83 	ldr	x3, [x20, #1624]
  401f64:	d37c1421 	ubfiz	x1, x1, #4, #6
  401f68:	8b010282 	add	x2, x20, x1
  401f6c:	9b037ca5 	mul	x5, x5, x3
  401f70:	b9000858 	str	w24, [x2, #8]
  401f74:	f8216a85 	str	x5, [x20, x1]
  401f78:	17ffffdb 	b	401ee4 <execute_cfa_program+0xbc>
  401f7c:	aa1303e0 	mov	x0, x19
  401f80:	17ffffd9 	b	401ee4 <execute_cfa_program+0xbc>
  401f84:	d2800003 	mov	x3, #0x0                   	// #0
  401f88:	52800001 	mov	w1, #0x0                   	// #0
  401f8c:	d503201f 	nop
  401f90:	38401662 	ldrb	w2, [x19], #1
  401f94:	92401840 	and	x0, x2, #0x7f
  401f98:	9ac12000 	lsl	x0, x0, x1
  401f9c:	11001c21 	add	w1, w1, #0x7
  401fa0:	aa000063 	orr	x3, x3, x0
  401fa4:	373fff62 	tbnz	w2, #7, 401f90 <execute_cfa_program+0x168>
  401fa8:	f101847f 	cmp	x3, #0x61
  401fac:	54fffe88 	b.hi	401f7c <execute_cfa_program+0x154>  // b.pmore
  401fb0:	8b031283 	add	x3, x20, x3, lsl #4
  401fb4:	528000c1 	mov	w1, #0x6                   	// #6
  401fb8:	aa1303e0 	mov	x0, x19
  401fbc:	b9000861 	str	w1, [x3, #8]
  401fc0:	17ffffc9 	b	401ee4 <execute_cfa_program+0xbc>
  401fc4:	d2800003 	mov	x3, #0x0                   	// #0
  401fc8:	52800001 	mov	w1, #0x0                   	// #0
  401fcc:	d503201f 	nop
  401fd0:	38401662 	ldrb	w2, [x19], #1
  401fd4:	92401840 	and	x0, x2, #0x7f
  401fd8:	9ac12000 	lsl	x0, x0, x1
  401fdc:	11001c21 	add	w1, w1, #0x7
  401fe0:	aa000063 	orr	x3, x3, x0
  401fe4:	373fff62 	tbnz	w2, #7, 401fd0 <execute_cfa_program+0x1a8>
  401fe8:	f101847f 	cmp	x3, #0x61
  401fec:	54fffc88 	b.hi	401f7c <execute_cfa_program+0x154>  // b.pmore
  401ff0:	8b031283 	add	x3, x20, x3, lsl #4
  401ff4:	aa1303e0 	mov	x0, x19
  401ff8:	b900087f 	str	wzr, [x3, #8]
  401ffc:	17ffffba 	b	401ee4 <execute_cfa_program+0xbc>
  402000:	d2800003 	mov	x3, #0x0                   	// #0
  402004:	52800001 	mov	w1, #0x0                   	// #0
  402008:	38401662 	ldrb	w2, [x19], #1
  40200c:	92401840 	and	x0, x2, #0x7f
  402010:	9ac12000 	lsl	x0, x0, x1
  402014:	11001c21 	add	w1, w1, #0x7
  402018:	aa000063 	orr	x3, x3, x0
  40201c:	373fff62 	tbnz	w2, #7, 402008 <execute_cfa_program+0x1e0>
  402020:	d2800004 	mov	x4, #0x0                   	// #0
  402024:	52800001 	mov	w1, #0x0                   	// #0
  402028:	38401662 	ldrb	w2, [x19], #1
  40202c:	92401840 	and	x0, x2, #0x7f
  402030:	9ac12000 	lsl	x0, x0, x1
  402034:	11001c21 	add	w1, w1, #0x7
  402038:	aa000084 	orr	x4, x4, x0
  40203c:	373fff62 	tbnz	w2, #7, 402028 <execute_cfa_program+0x200>
  402040:	f101847f 	cmp	x3, #0x61
  402044:	54fff9c8 	b.hi	401f7c <execute_cfa_program+0x154>  // b.pmore
  402048:	d37cec63 	lsl	x3, x3, #4
  40204c:	52800042 	mov	w2, #0x2                   	// #2
  402050:	8b030281 	add	x1, x20, x3
  402054:	aa1303e0 	mov	x0, x19
  402058:	b9000822 	str	w2, [x1, #8]
  40205c:	f8236a84 	str	x4, [x20, x3]
  402060:	17ffffa1 	b	401ee4 <execute_cfa_program+0xbc>
  402064:	b4002e39 	cbz	x25, 402628 <execute_cfa_program+0x800>
  402068:	aa1903e3 	mov	x3, x25
  40206c:	f9431339 	ldr	x25, [x25, #1568]
  402070:	aa0303e0 	mov	x0, x3
  402074:	d280c902 	mov	x2, #0x648                 	// #1608
  402078:	aa1403e1 	mov	x1, x20
  40207c:	97fff875 	bl	400250 <.plt+0x10>
  402080:	aa0003e3 	mov	x3, x0
  402084:	aa1303e0 	mov	x0, x19
  402088:	f9031283 	str	x3, [x20, #1568]
  40208c:	17ffff96 	b	401ee4 <execute_cfa_program+0xbc>
  402090:	f943129c 	ldr	x28, [x20, #1568]
  402094:	d280c902 	mov	x2, #0x648                 	// #1608
  402098:	aa1403e0 	mov	x0, x20
  40209c:	aa1c03e1 	mov	x1, x28
  4020a0:	97fff86c 	bl	400250 <.plt+0x10>
  4020a4:	aa1303e0 	mov	x0, x19
  4020a8:	f9031399 	str	x25, [x28, #1568]
  4020ac:	aa1c03f9 	mov	x25, x28
  4020b0:	17ffff8d 	b	401ee4 <execute_cfa_program+0xbc>
  4020b4:	d2800003 	mov	x3, #0x0                   	// #0
  4020b8:	52800001 	mov	w1, #0x0                   	// #0
  4020bc:	d503201f 	nop
  4020c0:	38401662 	ldrb	w2, [x19], #1
  4020c4:	92401840 	and	x0, x2, #0x7f
  4020c8:	9ac12000 	lsl	x0, x0, x1
  4020cc:	11001c21 	add	w1, w1, #0x7
  4020d0:	aa000063 	orr	x3, x3, x0
  4020d4:	373fff62 	tbnz	w2, #7, 4020c0 <execute_cfa_program+0x298>
  4020d8:	f9031a83 	str	x3, [x20, #1584]
  4020dc:	52800001 	mov	w1, #0x0                   	// #0
  4020e0:	d2800003 	mov	x3, #0x0                   	// #0
  4020e4:	d503201f 	nop
  4020e8:	38401662 	ldrb	w2, [x19], #1
  4020ec:	92401840 	and	x0, x2, #0x7f
  4020f0:	9ac12000 	lsl	x0, x0, x1
  4020f4:	11001c21 	add	w1, w1, #0x7
  4020f8:	aa000063 	orr	x3, x3, x0
  4020fc:	373fff62 	tbnz	w2, #7, 4020e8 <execute_cfa_program+0x2c0>
  402100:	aa1303e0 	mov	x0, x19
  402104:	f9031683 	str	x3, [x20, #1576]
  402108:	b9064298 	str	w24, [x20, #1600]
  40210c:	17ffff76 	b	401ee4 <execute_cfa_program+0xbc>
  402110:	d2800003 	mov	x3, #0x0                   	// #0
  402114:	52800001 	mov	w1, #0x0                   	// #0
  402118:	38401662 	ldrb	w2, [x19], #1
  40211c:	92401840 	and	x0, x2, #0x7f
  402120:	9ac12000 	lsl	x0, x0, x1
  402124:	11001c21 	add	w1, w1, #0x7
  402128:	aa000063 	orr	x3, x3, x0
  40212c:	373fff62 	tbnz	w2, #7, 402118 <execute_cfa_program+0x2f0>
  402130:	aa1303e0 	mov	x0, x19
  402134:	f9031a83 	str	x3, [x20, #1584]
  402138:	b9064298 	str	w24, [x20, #1600]
  40213c:	17ffff6a 	b	401ee4 <execute_cfa_program+0xbc>
  402140:	d2800003 	mov	x3, #0x0                   	// #0
  402144:	52800001 	mov	w1, #0x0                   	// #0
  402148:	38401662 	ldrb	w2, [x19], #1
  40214c:	92401840 	and	x0, x2, #0x7f
  402150:	9ac12000 	lsl	x0, x0, x1
  402154:	11001c21 	add	w1, w1, #0x7
  402158:	aa000063 	orr	x3, x3, x0
  40215c:	373fff62 	tbnz	w2, #7, 402148 <execute_cfa_program+0x320>
  402160:	aa1303e0 	mov	x0, x19
  402164:	f9031683 	str	x3, [x20, #1576]
  402168:	17ffff5f 	b	401ee4 <execute_cfa_program+0xbc>
  40216c:	78401001 	ldurh	w1, [x0, #1]
  402170:	91000c00 	add	x0, x0, #0x3
  402174:	f9433282 	ldr	x2, [x20, #1632]
  402178:	9b020c21 	madd	x1, x1, x2, x3
  40217c:	f9032681 	str	x1, [x20, #1608]
  402180:	17ffff59 	b	401ee4 <execute_cfa_program+0xbc>
  402184:	b8401001 	ldur	w1, [x0, #1]
  402188:	91001400 	add	x0, x0, #0x5
  40218c:	f9433282 	ldr	x2, [x20, #1632]
  402190:	9b020c21 	madd	x1, x1, x2, x3
  402194:	f9032681 	str	x1, [x20, #1608]
  402198:	17ffff53 	b	401ee4 <execute_cfa_program+0xbc>
  40219c:	d2800003 	mov	x3, #0x0                   	// #0
  4021a0:	52800001 	mov	w1, #0x0                   	// #0
  4021a4:	d503201f 	nop
  4021a8:	38401662 	ldrb	w2, [x19], #1
  4021ac:	92401840 	and	x0, x2, #0x7f
  4021b0:	9ac12000 	lsl	x0, x0, x1
  4021b4:	11001c21 	add	w1, w1, #0x7
  4021b8:	aa000063 	orr	x3, x3, x0
  4021bc:	373fff62 	tbnz	w2, #7, 4021a8 <execute_cfa_program+0x380>
  4021c0:	d2800004 	mov	x4, #0x0                   	// #0
  4021c4:	52800001 	mov	w1, #0x0                   	// #0
  4021c8:	38401662 	ldrb	w2, [x19], #1
  4021cc:	92401840 	and	x0, x2, #0x7f
  4021d0:	9ac12000 	lsl	x0, x0, x1
  4021d4:	11001c21 	add	w1, w1, #0x7
  4021d8:	aa000084 	orr	x4, x4, x0
  4021dc:	373fff62 	tbnz	w2, #7, 4021c8 <execute_cfa_program+0x3a0>
  4021e0:	f9432e80 	ldr	x0, [x20, #1624]
  4021e4:	f101847f 	cmp	x3, #0x61
  4021e8:	9b007c84 	mul	x4, x4, x0
  4021ec:	54ffec88 	b.hi	401f7c <execute_cfa_program+0x154>  // b.pmore
  4021f0:	d37cec63 	lsl	x3, x3, #4
  4021f4:	aa1303e0 	mov	x0, x19
  4021f8:	8b030281 	add	x1, x20, x3
  4021fc:	b9000838 	str	w24, [x1, #8]
  402200:	f8236a84 	str	x4, [x20, x3]
  402204:	17ffff38 	b	401ee4 <execute_cfa_program+0xbc>
  402208:	d2800003 	mov	x3, #0x0                   	// #0
  40220c:	52800001 	mov	w1, #0x0                   	// #0
  402210:	38401662 	ldrb	w2, [x19], #1
  402214:	92401840 	and	x0, x2, #0x7f
  402218:	9ac12000 	lsl	x0, x0, x1
  40221c:	11001c21 	add	w1, w1, #0x7
  402220:	aa000063 	orr	x3, x3, x0
  402224:	373fff62 	tbnz	w2, #7, 402210 <execute_cfa_program+0x3e8>
  402228:	17ffff70 	b	401fe8 <execute_cfa_program+0x1c0>
  40222c:	3959c29c 	ldrb	w28, [x20, #1648]
  402230:	aa1503e1 	mov	x1, x21
  402234:	2a1c03e0 	mov	w0, w28
  402238:	97fffee0 	bl	401db8 <base_of_encoded_value>
  40223c:	aa1a03e3 	mov	x3, x26
  402240:	aa0003e1 	mov	x1, x0
  402244:	aa1303e2 	mov	x2, x19
  402248:	2a1c03e0 	mov	w0, w28
  40224c:	97fffe89 	bl	401c70 <read_encoded_value_with_base>
  402250:	f94037a1 	ldr	x1, [x29, #104]
  402254:	f9032681 	str	x1, [x20, #1608]
  402258:	17ffff23 	b	401ee4 <execute_cfa_program+0xbc>
  40225c:	39400401 	ldrb	w1, [x0, #1]
  402260:	91000800 	add	x0, x0, #0x2
  402264:	f9433282 	ldr	x2, [x20, #1632]
  402268:	9b020c21 	madd	x1, x1, x2, x3
  40226c:	f9032681 	str	x1, [x20, #1608]
  402270:	17ffff1d 	b	401ee4 <execute_cfa_program+0xbc>
  402274:	d2800004 	mov	x4, #0x0                   	// #0
  402278:	52800001 	mov	w1, #0x0                   	// #0
  40227c:	d503201f 	nop
  402280:	38401662 	ldrb	w2, [x19], #1
  402284:	92401840 	and	x0, x2, #0x7f
  402288:	9ac12000 	lsl	x0, x0, x1
  40228c:	11001c21 	add	w1, w1, #0x7
  402290:	aa000084 	orr	x4, x4, x0
  402294:	373fff62 	tbnz	w2, #7, 402280 <execute_cfa_program+0x458>
  402298:	d2800003 	mov	x3, #0x0                   	// #0
  40229c:	52800001 	mov	w1, #0x0                   	// #0
  4022a0:	38401662 	ldrb	w2, [x19], #1
  4022a4:	92401840 	and	x0, x2, #0x7f
  4022a8:	9ac12000 	lsl	x0, x0, x1
  4022ac:	11001c21 	add	w1, w1, #0x7
  4022b0:	aa000063 	orr	x3, x3, x0
  4022b4:	373fff62 	tbnz	w2, #7, 4022a0 <execute_cfa_program+0x478>
  4022b8:	f9432e80 	ldr	x0, [x20, #1624]
  4022bc:	f101849f 	cmp	x4, #0x61
  4022c0:	9b007c63 	mul	x3, x3, x0
  4022c4:	54ffe5c8 	b.hi	401f7c <execute_cfa_program+0x154>  // b.pmore
  4022c8:	d37cec84 	lsl	x4, x4, #4
  4022cc:	cb0303e3 	neg	x3, x3
  4022d0:	8b040281 	add	x1, x20, x4
  4022d4:	aa1303e0 	mov	x0, x19
  4022d8:	b9000838 	str	w24, [x1, #8]
  4022dc:	f8246a83 	str	x3, [x20, x4]
  4022e0:	17ffff01 	b	401ee4 <execute_cfa_program+0xbc>
  4022e4:	52800040 	mov	w0, #0x2                   	// #2
  4022e8:	52800002 	mov	w2, #0x0                   	// #0
  4022ec:	f9031e93 	str	x19, [x20, #1592]
  4022f0:	b9064280 	str	w0, [x20, #1600]
  4022f4:	d2800000 	mov	x0, #0x0                   	// #0
  4022f8:	38401663 	ldrb	w3, [x19], #1
  4022fc:	92401861 	and	x1, x3, #0x7f
  402300:	9ac22021 	lsl	x1, x1, x2
  402304:	11001c42 	add	w2, w2, #0x7
  402308:	aa010000 	orr	x0, x0, x1
  40230c:	373fff63 	tbnz	w3, #7, 4022f8 <execute_cfa_program+0x4d0>
  402310:	8b000260 	add	x0, x19, x0
  402314:	17fffef4 	b	401ee4 <execute_cfa_program+0xbc>
  402318:	d2800003 	mov	x3, #0x0                   	// #0
  40231c:	52800001 	mov	w1, #0x0                   	// #0
  402320:	38401662 	ldrb	w2, [x19], #1
  402324:	92401840 	and	x0, x2, #0x7f
  402328:	9ac12000 	lsl	x0, x0, x1
  40232c:	11001c21 	add	w1, w1, #0x7
  402330:	aa000063 	orr	x3, x3, x0
  402334:	373fff62 	tbnz	w2, #7, 402320 <execute_cfa_program+0x4f8>
  402338:	f101847f 	cmp	x3, #0x61
  40233c:	540000c8 	b.hi	402354 <execute_cfa_program+0x52c>  // b.pmore
  402340:	d37cec63 	lsl	x3, x3, #4
  402344:	52800061 	mov	w1, #0x3                   	// #3
  402348:	8b030280 	add	x0, x20, x3
  40234c:	b9000801 	str	w1, [x0, #8]
  402350:	f8236a93 	str	x19, [x20, x3]
  402354:	d2800000 	mov	x0, #0x0                   	// #0
  402358:	52800002 	mov	w2, #0x0                   	// #0
  40235c:	d503201f 	nop
  402360:	38401663 	ldrb	w3, [x19], #1
  402364:	92401861 	and	x1, x3, #0x7f
  402368:	9ac22021 	lsl	x1, x1, x2
  40236c:	11001c42 	add	w2, w2, #0x7
  402370:	aa010000 	orr	x0, x0, x1
  402374:	373fff63 	tbnz	w3, #7, 402360 <execute_cfa_program+0x538>
  402378:	8b000260 	add	x0, x19, x0
  40237c:	17fffeda 	b	401ee4 <execute_cfa_program+0xbc>
  402380:	d2800003 	mov	x3, #0x0                   	// #0
  402384:	52800001 	mov	w1, #0x0                   	// #0
  402388:	38401662 	ldrb	w2, [x19], #1
  40238c:	92401840 	and	x0, x2, #0x7f
  402390:	9ac12000 	lsl	x0, x0, x1
  402394:	11001c21 	add	w1, w1, #0x7
  402398:	aa000063 	orr	x3, x3, x0
  40239c:	373fff62 	tbnz	w2, #7, 402388 <execute_cfa_program+0x560>
  4023a0:	d2800004 	mov	x4, #0x0                   	// #0
  4023a4:	52800001 	mov	w1, #0x0                   	// #0
  4023a8:	38401662 	ldrb	w2, [x19], #1
  4023ac:	92401840 	and	x0, x2, #0x7f
  4023b0:	9ac12000 	lsl	x0, x0, x1
  4023b4:	11001c21 	add	w1, w1, #0x7
  4023b8:	aa000084 	orr	x4, x4, x0
  4023bc:	373fff62 	tbnz	w2, #7, 4023a8 <execute_cfa_program+0x580>
  4023c0:	7100fc3f 	cmp	w1, #0x3f
  4023c4:	54fff0e8 	b.hi	4021e0 <execute_cfa_program+0x3b8>  // b.pmore
  4023c8:	92800000 	mov	x0, #0xffffffffffffffff    	// #-1
  4023cc:	f27a005f 	tst	x2, #0x40
  4023d0:	9ac12000 	lsl	x0, x0, x1
  4023d4:	aa000080 	orr	x0, x4, x0
  4023d8:	9a841004 	csel	x4, x0, x4, ne  // ne = any
  4023dc:	17ffff81 	b	4021e0 <execute_cfa_program+0x3b8>
  4023e0:	d2800003 	mov	x3, #0x0                   	// #0
  4023e4:	52800001 	mov	w1, #0x0                   	// #0
  4023e8:	38401662 	ldrb	w2, [x19], #1
  4023ec:	92401840 	and	x0, x2, #0x7f
  4023f0:	9ac12000 	lsl	x0, x0, x1
  4023f4:	11001c21 	add	w1, w1, #0x7
  4023f8:	aa000063 	orr	x3, x3, x0
  4023fc:	373fff62 	tbnz	w2, #7, 4023e8 <execute_cfa_program+0x5c0>
  402400:	f9031a83 	str	x3, [x20, #1584]
  402404:	52800001 	mov	w1, #0x0                   	// #0
  402408:	d2800003 	mov	x3, #0x0                   	// #0
  40240c:	d503201f 	nop
  402410:	38401662 	ldrb	w2, [x19], #1
  402414:	92401840 	and	x0, x2, #0x7f
  402418:	9ac12000 	lsl	x0, x0, x1
  40241c:	11001c21 	add	w1, w1, #0x7
  402420:	aa000063 	orr	x3, x3, x0
  402424:	373fff62 	tbnz	w2, #7, 402410 <execute_cfa_program+0x5e8>
  402428:	7100fc3f 	cmp	w1, #0x3f
  40242c:	540000c8 	b.hi	402444 <execute_cfa_program+0x61c>  // b.pmore
  402430:	92800000 	mov	x0, #0xffffffffffffffff    	// #-1
  402434:	f27a005f 	tst	x2, #0x40
  402438:	9ac12000 	lsl	x0, x0, x1
  40243c:	aa000060 	orr	x0, x3, x0
  402440:	9a831003 	csel	x3, x0, x3, ne  // ne = any
  402444:	f9432e81 	ldr	x1, [x20, #1624]
  402448:	aa1303e0 	mov	x0, x19
  40244c:	b9064298 	str	w24, [x20, #1600]
  402450:	9b037c23 	mul	x3, x1, x3
  402454:	f9031683 	str	x3, [x20, #1576]
  402458:	17fffea3 	b	401ee4 <execute_cfa_program+0xbc>
  40245c:	d2800003 	mov	x3, #0x0                   	// #0
  402460:	52800001 	mov	w1, #0x0                   	// #0
  402464:	d503201f 	nop
  402468:	38401662 	ldrb	w2, [x19], #1
  40246c:	92401840 	and	x0, x2, #0x7f
  402470:	9ac12000 	lsl	x0, x0, x1
  402474:	11001c21 	add	w1, w1, #0x7
  402478:	aa000063 	orr	x3, x3, x0
  40247c:	373fff62 	tbnz	w2, #7, 402468 <execute_cfa_program+0x640>
  402480:	7100fc3f 	cmp	w1, #0x3f
  402484:	540000c8 	b.hi	40249c <execute_cfa_program+0x674>  // b.pmore
  402488:	92800000 	mov	x0, #0xffffffffffffffff    	// #-1
  40248c:	f27a005f 	tst	x2, #0x40
  402490:	9ac12000 	lsl	x0, x0, x1
  402494:	aa000060 	orr	x0, x3, x0
  402498:	9a831003 	csel	x3, x0, x3, ne  // ne = any
  40249c:	f9432e81 	ldr	x1, [x20, #1624]
  4024a0:	aa1303e0 	mov	x0, x19
  4024a4:	9b037c23 	mul	x3, x1, x3
  4024a8:	f9031683 	str	x3, [x20, #1576]
  4024ac:	17fffe8e 	b	401ee4 <execute_cfa_program+0xbc>
  4024b0:	d2800003 	mov	x3, #0x0                   	// #0
  4024b4:	52800001 	mov	w1, #0x0                   	// #0
  4024b8:	38401662 	ldrb	w2, [x19], #1
  4024bc:	92401840 	and	x0, x2, #0x7f
  4024c0:	9ac12000 	lsl	x0, x0, x1
  4024c4:	11001c21 	add	w1, w1, #0x7
  4024c8:	aa000063 	orr	x3, x3, x0
  4024cc:	373fff62 	tbnz	w2, #7, 4024b8 <execute_cfa_program+0x690>
  4024d0:	d2800004 	mov	x4, #0x0                   	// #0
  4024d4:	52800001 	mov	w1, #0x0                   	// #0
  4024d8:	38401662 	ldrb	w2, [x19], #1
  4024dc:	92401840 	and	x0, x2, #0x7f
  4024e0:	9ac12000 	lsl	x0, x0, x1
  4024e4:	11001c21 	add	w1, w1, #0x7
  4024e8:	aa000084 	orr	x4, x4, x0
  4024ec:	373fff62 	tbnz	w2, #7, 4024d8 <execute_cfa_program+0x6b0>
  4024f0:	f9432e80 	ldr	x0, [x20, #1624]
  4024f4:	f101847f 	cmp	x3, #0x61
  4024f8:	9b007c84 	mul	x4, x4, x0
  4024fc:	54ffd408 	b.hi	401f7c <execute_cfa_program+0x154>  // b.pmore
  402500:	d37cec63 	lsl	x3, x3, #4
  402504:	52800082 	mov	w2, #0x4                   	// #4
  402508:	8b030281 	add	x1, x20, x3
  40250c:	aa1303e0 	mov	x0, x19
  402510:	b9000822 	str	w2, [x1, #8]
  402514:	f8236a84 	str	x4, [x20, x3]
  402518:	17fffe73 	b	401ee4 <execute_cfa_program+0xbc>
  40251c:	d2800003 	mov	x3, #0x0                   	// #0
  402520:	52800001 	mov	w1, #0x0                   	// #0
  402524:	d503201f 	nop
  402528:	38401662 	ldrb	w2, [x19], #1
  40252c:	92401840 	and	x0, x2, #0x7f
  402530:	9ac12000 	lsl	x0, x0, x1
  402534:	11001c21 	add	w1, w1, #0x7
  402538:	aa000063 	orr	x3, x3, x0
  40253c:	373fff62 	tbnz	w2, #7, 402528 <execute_cfa_program+0x700>
  402540:	d2800004 	mov	x4, #0x0                   	// #0
  402544:	52800001 	mov	w1, #0x0                   	// #0
  402548:	38401662 	ldrb	w2, [x19], #1
  40254c:	92401840 	and	x0, x2, #0x7f
  402550:	9ac12000 	lsl	x0, x0, x1
  402554:	11001c21 	add	w1, w1, #0x7
  402558:	aa000084 	orr	x4, x4, x0
  40255c:	373fff62 	tbnz	w2, #7, 402548 <execute_cfa_program+0x720>
  402560:	7100fc3f 	cmp	w1, #0x3f
  402564:	54fffc68 	b.hi	4024f0 <execute_cfa_program+0x6c8>  // b.pmore
  402568:	92800000 	mov	x0, #0xffffffffffffffff    	// #-1
  40256c:	f27a005f 	tst	x2, #0x40
  402570:	9ac12000 	lsl	x0, x0, x1
  402574:	aa000080 	orr	x0, x4, x0
  402578:	9a841004 	csel	x4, x0, x4, ne  // ne = any
  40257c:	17ffffdd 	b	4024f0 <execute_cfa_program+0x6c8>
  402580:	d2800003 	mov	x3, #0x0                   	// #0
  402584:	52800001 	mov	w1, #0x0                   	// #0
  402588:	38401662 	ldrb	w2, [x19], #1
  40258c:	92401840 	and	x0, x2, #0x7f
  402590:	9ac12000 	lsl	x0, x0, x1
  402594:	11001c21 	add	w1, w1, #0x7
  402598:	aa000063 	orr	x3, x3, x0
  40259c:	373fff62 	tbnz	w2, #7, 402588 <execute_cfa_program+0x760>
  4025a0:	f101847f 	cmp	x3, #0x61
  4025a4:	540000a8 	b.hi	4025b8 <execute_cfa_program+0x790>  // b.pmore
  4025a8:	d37cec63 	lsl	x3, x3, #4
  4025ac:	8b030280 	add	x0, x20, x3
  4025b0:	b900081b 	str	w27, [x0, #8]
  4025b4:	f8236a93 	str	x19, [x20, x3]
  4025b8:	d2800000 	mov	x0, #0x0                   	// #0
  4025bc:	52800002 	mov	w2, #0x0                   	// #0
  4025c0:	38401663 	ldrb	w3, [x19], #1
  4025c4:	92401861 	and	x1, x3, #0x7f
  4025c8:	9ac22021 	lsl	x1, x1, x2
  4025cc:	11001c42 	add	w2, w2, #0x7
  4025d0:	aa010000 	orr	x0, x0, x1
  4025d4:	373fff63 	tbnz	w3, #7, 4025c0 <execute_cfa_program+0x798>
  4025d8:	8b000260 	add	x0, x19, x0
  4025dc:	17fffe42 	b	401ee4 <execute_cfa_program+0xbc>
  4025e0:	f9411281 	ldr	x1, [x20, #544]
  4025e4:	aa1303e0 	mov	x0, x19
  4025e8:	d2400021 	eor	x1, x1, #0x1
  4025ec:	f9011281 	str	x1, [x20, #544]
  4025f0:	17fffe3d 	b	401ee4 <execute_cfa_program+0xbc>
  4025f4:	d2800003 	mov	x3, #0x0                   	// #0
  4025f8:	52800001 	mov	w1, #0x0                   	// #0
  4025fc:	d503201f 	nop
  402600:	38401662 	ldrb	w2, [x19], #1
  402604:	92401840 	and	x0, x2, #0x7f
  402608:	9ac12000 	lsl	x0, x0, x1
  40260c:	11001c21 	add	w1, w1, #0x7
  402610:	aa000063 	orr	x3, x3, x0
  402614:	373fff62 	tbnz	w2, #7, 402600 <execute_cfa_program+0x7d8>
  402618:	aa1303e0 	mov	x0, x19
  40261c:	f901aaa3 	str	x3, [x21, #848]
  402620:	17fffe31 	b	401ee4 <execute_cfa_program+0xbc>
  402624:	d65f03c0 	ret
  402628:	d11983ff 	sub	sp, sp, #0x660
  40262c:	910003e3 	mov	x3, sp
  402630:	17fffe90 	b	402070 <execute_cfa_program+0x248>
  402634:	d503201f 	nop

0000000000402638 <init_dwarf_reg_size_table>:
  402638:	f0000402 	adrp	x2, 485000 <__pthread_keys+0x3578>
  40263c:	912a4041 	add	x1, x2, #0xa90
  402640:	52800100 	mov	w0, #0x8                   	// #8
  402644:	392a4040 	strb	w0, [x2, #2704]
  402648:	39000420 	strb	w0, [x1, #1]
  40264c:	39000820 	strb	w0, [x1, #2]
  402650:	39000c20 	strb	w0, [x1, #3]
  402654:	39001020 	strb	w0, [x1, #4]
  402658:	39001420 	strb	w0, [x1, #5]
  40265c:	39001820 	strb	w0, [x1, #6]
  402660:	39001c20 	strb	w0, [x1, #7]
  402664:	39002020 	strb	w0, [x1, #8]
  402668:	39002420 	strb	w0, [x1, #9]
  40266c:	39002820 	strb	w0, [x1, #10]
  402670:	39002c20 	strb	w0, [x1, #11]
  402674:	39003020 	strb	w0, [x1, #12]
  402678:	39003420 	strb	w0, [x1, #13]
  40267c:	39003820 	strb	w0, [x1, #14]
  402680:	39003c20 	strb	w0, [x1, #15]
  402684:	39004020 	strb	w0, [x1, #16]
  402688:	39004420 	strb	w0, [x1, #17]
  40268c:	39004820 	strb	w0, [x1, #18]
  402690:	39004c20 	strb	w0, [x1, #19]
  402694:	39005020 	strb	w0, [x1, #20]
  402698:	39005420 	strb	w0, [x1, #21]
  40269c:	39005820 	strb	w0, [x1, #22]
  4026a0:	39005c20 	strb	w0, [x1, #23]
  4026a4:	39006020 	strb	w0, [x1, #24]
  4026a8:	39006420 	strb	w0, [x1, #25]
  4026ac:	39006820 	strb	w0, [x1, #26]
  4026b0:	39006c20 	strb	w0, [x1, #27]
  4026b4:	39007020 	strb	w0, [x1, #28]
  4026b8:	39007420 	strb	w0, [x1, #29]
  4026bc:	39007820 	strb	w0, [x1, #30]
  4026c0:	39007c20 	strb	w0, [x1, #31]
  4026c4:	39010020 	strb	w0, [x1, #64]
  4026c8:	39010420 	strb	w0, [x1, #65]
  4026cc:	39010820 	strb	w0, [x1, #66]
  4026d0:	39010c20 	strb	w0, [x1, #67]
  4026d4:	39011020 	strb	w0, [x1, #68]
  4026d8:	39011420 	strb	w0, [x1, #69]
  4026dc:	39011820 	strb	w0, [x1, #70]
  4026e0:	39011c20 	strb	w0, [x1, #71]
  4026e4:	39012020 	strb	w0, [x1, #72]
  4026e8:	39012420 	strb	w0, [x1, #73]
  4026ec:	39012820 	strb	w0, [x1, #74]
  4026f0:	39012c20 	strb	w0, [x1, #75]
  4026f4:	39013020 	strb	w0, [x1, #76]
  4026f8:	39013420 	strb	w0, [x1, #77]
  4026fc:	39013820 	strb	w0, [x1, #78]
  402700:	39013c20 	strb	w0, [x1, #79]
  402704:	39014020 	strb	w0, [x1, #80]
  402708:	39014420 	strb	w0, [x1, #81]
  40270c:	39014820 	strb	w0, [x1, #82]
  402710:	39014c20 	strb	w0, [x1, #83]
  402714:	39015020 	strb	w0, [x1, #84]
  402718:	39015420 	strb	w0, [x1, #85]
  40271c:	39015820 	strb	w0, [x1, #86]
  402720:	39015c20 	strb	w0, [x1, #87]
  402724:	39016020 	strb	w0, [x1, #88]
  402728:	39016420 	strb	w0, [x1, #89]
  40272c:	39016820 	strb	w0, [x1, #90]
  402730:	39016c20 	strb	w0, [x1, #91]
  402734:	39017020 	strb	w0, [x1, #92]
  402738:	39017420 	strb	w0, [x1, #93]
  40273c:	39017820 	strb	w0, [x1, #94]
  402740:	39017c20 	strb	w0, [x1, #95]
  402744:	39018020 	strb	w0, [x1, #96]
  402748:	d65f03c0 	ret
  40274c:	d503201f 	nop

0000000000402750 <uw_frame_state_for>:
  402750:	a9b97bfd 	stp	x29, x30, [sp, #-112]!
  402754:	d280d002 	mov	x2, #0x680                 	// #1664
  402758:	910003fd 	mov	x29, sp
  40275c:	a901d7f4 	stp	x20, x21, [sp, #24]
  402760:	aa0003f5 	mov	x21, x0
  402764:	aa0103f4 	mov	x20, x1
  402768:	52800001 	mov	w1, #0x0                   	// #0
  40276c:	aa1403e0 	mov	x0, x20
  402770:	97fff6bc 	bl	400260 <.plt+0x20>
  402774:	f9418ea2 	ldr	x2, [x21, #792]
  402778:	f90192bf 	str	xzr, [x21, #800]
  40277c:	f901aabf 	str	xzr, [x21, #848]
  402780:	b4001722 	cbz	x2, 402a64 <uw_frame_state_for+0x314>
  402784:	f941a2a0 	ldr	x0, [x21, #832]
  402788:	d2800003 	mov	x3, #0x0                   	// #0
  40278c:	f9001bb7 	str	x23, [x29, #48]
  402790:	910ca2a1 	add	x1, x21, #0x328
  402794:	eb03001f 	cmp	x0, x3
  402798:	da9fb3e0 	csetm	x0, ge  // ge = tcont
  40279c:	8b000040 	add	x0, x2, x0
  4027a0:	94000dea 	bl	405f48 <_Unwind_Find_FDE>
  4027a4:	aa0003f7 	mov	x23, x0
  4027a8:	b4001a20 	cbz	x0, 402aec <uw_frame_state_for+0x39c>
  4027ac:	b9800401 	ldrsw	x1, [x0, #4]
  4027b0:	f9419ea0 	ldr	x0, [x21, #824]
  4027b4:	f9000bb3 	str	x19, [x29, #16]
  4027b8:	f90017b6 	str	x22, [x29, #40]
  4027bc:	910012f6 	add	x22, x23, #0x4
  4027c0:	cb0102d6 	sub	x22, x22, x1
  4027c4:	f9032680 	str	x0, [x20, #1608]
  4027c8:	910026d3 	add	x19, x22, #0x9
  4027cc:	aa1303e0 	mov	x0, x19
  4027d0:	9400603c 	bl	41a8c0 <__strlen>
  4027d4:	394026c2 	ldrb	w2, [x22, #9]
  4027d8:	91000400 	add	x0, x0, #0x1
  4027dc:	8b000261 	add	x1, x19, x0
  4027e0:	7101945f 	cmp	w2, #0x65
  4027e4:	540015c0 	b.eq	402a9c <uw_frame_state_for+0x34c>  // b.none
  4027e8:	394022c6 	ldrb	w6, [x22, #8]
  4027ec:	39400023 	ldrb	w3, [x1]
  4027f0:	71000cdf 	cmp	w6, #0x3
  4027f4:	540016a8 	b.hi	402ac8 <uw_frame_state_for+0x378>  // b.pmore
  4027f8:	a903e7b8 	stp	x24, x25, [x29, #56]
  4027fc:	f90027ba 	str	x26, [x29, #72]
  402800:	d2800004 	mov	x4, #0x0                   	// #0
  402804:	52800002 	mov	w2, #0x0                   	// #0
  402808:	14000002 	b	402810 <uw_frame_state_for+0xc0>
  40280c:	39400023 	ldrb	w3, [x1]
  402810:	92401860 	and	x0, x3, #0x7f
  402814:	91000421 	add	x1, x1, #0x1
  402818:	9ac22000 	lsl	x0, x0, x2
  40281c:	11001c42 	add	w2, w2, #0x7
  402820:	aa000084 	orr	x4, x4, x0
  402824:	373fff43 	tbnz	w3, #7, 40280c <uw_frame_state_for+0xbc>
  402828:	d2800005 	mov	x5, #0x0                   	// #0
  40282c:	52800003 	mov	w3, #0x0                   	// #0
  402830:	f9033284 	str	x4, [x20, #1632]
  402834:	14000002 	b	40283c <uw_frame_state_for+0xec>
  402838:	aa0003e1 	mov	x1, x0
  40283c:	aa0103e0 	mov	x0, x1
  402840:	38401404 	ldrb	w4, [x0], #1
  402844:	92401882 	and	x2, x4, #0x7f
  402848:	9ac32042 	lsl	x2, x2, x3
  40284c:	11001c63 	add	w3, w3, #0x7
  402850:	aa0200a5 	orr	x5, x5, x2
  402854:	373fff24 	tbnz	w4, #7, 402838 <uw_frame_state_for+0xe8>
  402858:	7100fc7f 	cmp	w3, #0x3f
  40285c:	540000c8 	b.hi	402874 <uw_frame_state_for+0x124>  // b.pmore
  402860:	92800002 	mov	x2, #0xffffffffffffffff    	// #-1
  402864:	f27a009f 	tst	x4, #0x40
  402868:	9ac32043 	lsl	x3, x2, x3
  40286c:	aa0300a3 	orr	x3, x5, x3
  402870:	9a851065 	csel	x5, x3, x5, ne  // ne = any
  402874:	f9032e85 	str	x5, [x20, #1624]
  402878:	d2800004 	mov	x4, #0x0                   	// #0
  40287c:	52800002 	mov	w2, #0x0                   	// #0
  402880:	710004df 	cmp	w6, #0x1
  402884:	54001e60 	b.eq	402c50 <uw_frame_state_for+0x500>  // b.none
  402888:	38401403 	ldrb	w3, [x0], #1
  40288c:	92401861 	and	x1, x3, #0x7f
  402890:	9ac22021 	lsl	x1, x1, x2
  402894:	11001c42 	add	w2, w2, #0x7
  402898:	aa010084 	orr	x4, x4, x1
  40289c:	373fff63 	tbnz	w3, #7, 402888 <uw_frame_state_for+0x138>
  4028a0:	f9033684 	str	x4, [x20, #1640]
  4028a4:	12800001 	mov	w1, #0xffffffff            	// #-1
  4028a8:	3919c681 	strb	w1, [x20, #1649]
  4028ac:	d2800018 	mov	x24, #0x0                   	// #0
  4028b0:	39400261 	ldrb	w1, [x19]
  4028b4:	7101e83f 	cmp	w1, #0x7a
  4028b8:	54001b00 	b.eq	402c18 <uw_frame_state_for+0x4c8>  // b.none
  4028bc:	91000673 	add	x19, x19, #0x1
  4028c0:	5280003a 	mov	w26, #0x1                   	// #1
  4028c4:	9101a3b9 	add	x25, x29, #0x68
  4028c8:	340001a1 	cbz	w1, 4028fc <uw_frame_state_for+0x1ac>
  4028cc:	d503201f 	nop
  4028d0:	7101303f 	cmp	w1, #0x4c
  4028d4:	54000920 	b.eq	4029f8 <uw_frame_state_for+0x2a8>  // b.none
  4028d8:	7101483f 	cmp	w1, #0x52
  4028dc:	54000980 	b.eq	402a0c <uw_frame_state_for+0x2bc>  // b.none
  4028e0:	7101403f 	cmp	w1, #0x50
  4028e4:	540009e0 	b.eq	402a20 <uw_frame_state_for+0x2d0>  // b.none
  4028e8:	71014c3f 	cmp	w1, #0x53
  4028ec:	54000c41 	b.ne	402a74 <uw_frame_state_for+0x324>  // b.any
  4028f0:	3919ce9a 	strb	w26, [x20, #1651]
  4028f4:	38401661 	ldrb	w1, [x19], #1
  4028f8:	35fffec1 	cbnz	w1, 4028d0 <uw_frame_state_for+0x180>
  4028fc:	b4000bf8 	cbz	x24, 402a78 <uw_frame_state_for+0x328>
  402900:	b94002c1 	ldr	w1, [x22]
  402904:	aa1803e0 	mov	x0, x24
  402908:	aa1403e3 	mov	x3, x20
  40290c:	aa1503e2 	mov	x2, x21
  402910:	91001021 	add	x1, x1, #0x4
  402914:	8b0102c1 	add	x1, x22, x1
  402918:	97fffd44 	bl	401e28 <execute_cfa_program>
  40291c:	3959c280 	ldrb	w0, [x20, #1648]
  402920:	7103fc1f 	cmp	w0, #0xff
  402924:	540019e0 	b.eq	402c60 <uw_frame_state_for+0x510>  // b.none
  402928:	12000800 	and	w0, w0, #0x7
  40292c:	7100081f 	cmp	w0, #0x2
  402930:	54000c80 	b.eq	402ac0 <uw_frame_state_for+0x370>  // b.none
  402934:	54001a09 	b.ls	402c74 <uw_frame_state_for+0x524>  // b.plast
  402938:	d2800213 	mov	x19, #0x10                  	// #16
  40293c:	71000c1f 	cmp	w0, #0x3
  402940:	54001a01 	b.ne	402c80 <uw_frame_state_for+0x530>  // b.any
  402944:	3959ca80 	ldrb	w0, [x20, #1650]
  402948:	8b1302f3 	add	x19, x23, x19
  40294c:	3959c696 	ldrb	w22, [x20, #1649]
  402950:	340015a0 	cbz	w0, 402c04 <uw_frame_state_for+0x4b4>
  402954:	d2800003 	mov	x3, #0x0                   	// #0
  402958:	52800001 	mov	w1, #0x0                   	// #0
  40295c:	d503201f 	nop
  402960:	38401662 	ldrb	w2, [x19], #1
  402964:	92401840 	and	x0, x2, #0x7f
  402968:	9ac12000 	lsl	x0, x0, x1
  40296c:	11001c21 	add	w1, w1, #0x7
  402970:	aa000063 	orr	x3, x3, x0
  402974:	373fff62 	tbnz	w2, #7, 402960 <uw_frame_state_for+0x210>
  402978:	8b030263 	add	x3, x19, x3
  40297c:	7103fedf 	cmp	w22, #0xff
  402980:	54001740 	b.eq	402c68 <uw_frame_state_for+0x518>  // b.none
  402984:	aa1303f8 	mov	x24, x19
  402988:	aa0303f3 	mov	x19, x3
  40298c:	aa1503e1 	mov	x1, x21
  402990:	2a1603e0 	mov	w0, w22
  402994:	97fffd09 	bl	401db8 <base_of_encoded_value>
  402998:	aa0003e1 	mov	x1, x0
  40299c:	9101a3a3 	add	x3, x29, #0x68
  4029a0:	aa1803e2 	mov	x2, x24
  4029a4:	2a1603e0 	mov	w0, w22
  4029a8:	97fffcb2 	bl	401c70 <read_encoded_value_with_base>
  4029ac:	f94037a1 	ldr	x1, [x29, #104]
  4029b0:	f90192a1 	str	x1, [x21, #800]
  4029b4:	f100027f 	cmp	x19, #0x0
  4029b8:	9a801273 	csel	x19, x19, x0, ne  // ne = any
  4029bc:	b94002e1 	ldr	w1, [x23]
  4029c0:	aa1403e3 	mov	x3, x20
  4029c4:	aa1503e2 	mov	x2, x21
  4029c8:	aa1303e0 	mov	x0, x19
  4029cc:	91001021 	add	x1, x1, #0x4
  4029d0:	8b0102e1 	add	x1, x23, x1
  4029d4:	97fffd15 	bl	401e28 <execute_cfa_program>
  4029d8:	52800000 	mov	w0, #0x0                   	// #0
  4029dc:	f9400bb3 	ldr	x19, [x29, #16]
  4029e0:	a942dfb6 	ldp	x22, x23, [x29, #40]
  4029e4:	a943e7b8 	ldp	x24, x25, [x29, #56]
  4029e8:	f94027ba 	ldr	x26, [x29, #72]
  4029ec:	a941d7f4 	ldp	x20, x21, [sp, #24]
  4029f0:	a8c77bfd 	ldp	x29, x30, [sp], #112
  4029f4:	d65f03c0 	ret
  4029f8:	39400001 	ldrb	w1, [x0]
  4029fc:	91000400 	add	x0, x0, #0x1
  402a00:	3919c681 	strb	w1, [x20, #1649]
  402a04:	38401661 	ldrb	w1, [x19], #1
  402a08:	17ffffbc 	b	4028f8 <uw_frame_state_for+0x1a8>
  402a0c:	39400001 	ldrb	w1, [x0]
  402a10:	91000400 	add	x0, x0, #0x1
  402a14:	3919c281 	strb	w1, [x20, #1648]
  402a18:	38401661 	ldrb	w1, [x19], #1
  402a1c:	17ffffb7 	b	4028f8 <uw_frame_state_for+0x1a8>
  402a20:	a90573bb 	stp	x27, x28, [x29, #80]
  402a24:	aa0003fb 	mov	x27, x0
  402a28:	aa1503e1 	mov	x1, x21
  402a2c:	3840177c 	ldrb	w28, [x27], #1
  402a30:	2a1c03e0 	mov	w0, w28
  402a34:	97fffce1 	bl	401db8 <base_of_encoded_value>
  402a38:	aa1b03e2 	mov	x2, x27
  402a3c:	aa0003e1 	mov	x1, x0
  402a40:	aa1903e3 	mov	x3, x25
  402a44:	2a1c03e0 	mov	w0, w28
  402a48:	97fffc8a 	bl	401c70 <read_encoded_value_with_base>
  402a4c:	f94037a1 	ldr	x1, [x29, #104]
  402a50:	a94573bb 	ldp	x27, x28, [x29, #80]
  402a54:	f9032a81 	str	x1, [x20, #1616]
  402a58:	38401661 	ldrb	w1, [x19], #1
  402a5c:	17ffffa7 	b	4028f8 <uw_frame_state_for+0x1a8>
  402a60:	f9401bb7 	ldr	x23, [x29, #48]
  402a64:	528000a0 	mov	w0, #0x5                   	// #5
  402a68:	a941d7f4 	ldp	x20, x21, [sp, #24]
  402a6c:	a8c77bfd 	ldp	x29, x30, [sp], #112
  402a70:	d65f03c0 	ret
  402a74:	aa1803e0 	mov	x0, x24
  402a78:	b5000200 	cbnz	x0, 402ab8 <uw_frame_state_for+0x368>
  402a7c:	a943e7b8 	ldp	x24, x25, [x29, #56]
  402a80:	f94027ba 	ldr	x26, [x29, #72]
  402a84:	f9400bb3 	ldr	x19, [x29, #16]
  402a88:	52800060 	mov	w0, #0x3                   	// #3
  402a8c:	a942dfb6 	ldp	x22, x23, [x29, #40]
  402a90:	a941d7f4 	ldp	x20, x21, [sp, #24]
  402a94:	a8c77bfd 	ldp	x29, x30, [sp], #112
  402a98:	d65f03c0 	ret
  402a9c:	39402ac0 	ldrb	w0, [x22, #10]
  402aa0:	7101a01f 	cmp	w0, #0x68
  402aa4:	54ffea21 	b.ne	4027e8 <uw_frame_state_for+0x98>  // b.any
  402aa8:	f8408420 	ldr	x0, [x1], #8
  402aac:	91002ed3 	add	x19, x22, #0xb
  402ab0:	f9033e80 	str	x0, [x20, #1656]
  402ab4:	17ffff4d 	b	4027e8 <uw_frame_state_for+0x98>
  402ab8:	aa0003f8 	mov	x24, x0
  402abc:	17ffff91 	b	402900 <uw_frame_state_for+0x1b0>
  402ac0:	d2800193 	mov	x19, #0xc                   	// #12
  402ac4:	17ffffa0 	b	402944 <uw_frame_state_for+0x1f4>
  402ac8:	7100207f 	cmp	w3, #0x8
  402acc:	54fffdc1 	b.ne	402a84 <uw_frame_state_for+0x334>  // b.any
  402ad0:	39400420 	ldrb	w0, [x1, #1]
  402ad4:	35fffd80 	cbnz	w0, 402a84 <uw_frame_state_for+0x334>
  402ad8:	a903e7b8 	stp	x24, x25, [x29, #56]
  402adc:	91000821 	add	x1, x1, #0x2
  402ae0:	f90027ba 	str	x26, [x29, #72]
  402ae4:	39400023 	ldrb	w3, [x1]
  402ae8:	17ffff46 	b	402800 <uw_frame_state_for+0xb0>
  402aec:	f9418ea0 	ldr	x0, [x21, #792]
  402af0:	52822d01 	mov	w1, #0x1168                	// #4456
  402af4:	72ba5001 	movk	w1, #0xd280, lsl #16
  402af8:	b9400002 	ldr	w2, [x0]
  402afc:	6b01005f 	cmp	w2, w1
  402b00:	54fffb01 	b.ne	402a60 <uw_frame_state_for+0x310>  // b.any
  402b04:	b9400401 	ldr	w1, [x0, #4]
  402b08:	52800020 	mov	w0, #0x1                   	// #1
  402b0c:	72ba8000 	movk	w0, #0xd400, lsl #16
  402b10:	6b00003f 	cmp	w1, w0
  402b14:	54fffa61 	b.ne	402a60 <uw_frame_state_for+0x310>  // b.any
  402b18:	f9418aa7 	ldr	x7, [x21, #784]
  402b1c:	52800023 	mov	w3, #0x1                   	// #1
  402b20:	91002281 	add	x1, x20, #0x8
  402b24:	2a0303e2 	mov	w2, w3
  402b28:	9104c0e9 	add	x9, x7, #0x130
  402b2c:	d28003e4 	mov	x4, #0x1f                  	// #31
  402b30:	d2802605 	mov	x5, #0x130                 	// #304
  402b34:	d2800100 	mov	x0, #0x8                   	// #8
  402b38:	f9031685 	str	x5, [x20, #1576]
  402b3c:	f9031a84 	str	x4, [x20, #1584]
  402b40:	b9064283 	str	w3, [x20, #1600]
  402b44:	d503201f 	nop
  402b48:	f81f8020 	stur	x0, [x1, #-8]
  402b4c:	91002000 	add	x0, x0, #0x8
  402b50:	b9000022 	str	w2, [x1]
  402b54:	f104001f 	cmp	x0, #0x100
  402b58:	91004021 	add	x1, x1, #0x10
  402b5c:	54ffff61 	b.ne	402b48 <uw_frame_state_for+0x3f8>  // b.any
  402b60:	b94250e0 	ldr	w0, [x7, #592]
  402b64:	910940e6 	add	x6, x7, #0x250
  402b68:	340002e0 	cbz	w0, 402bc4 <uw_frame_state_for+0x474>
  402b6c:	52900028 	mov	w8, #0x8001                	// #32769
  402b70:	92807de2 	mov	x2, #0xfffffffffffffc10    	// #-1008
  402b74:	91180285 	add	x5, x20, #0x600
  402b78:	cb140042 	sub	x2, x2, x20
  402b7c:	72a8ca08 	movk	w8, #0x4650, lsl #16
  402b80:	52800024 	mov	w4, #0x1                   	// #1
  402b84:	14000005 	b	402b98 <uw_frame_state_for+0x448>
  402b88:	b94004c0 	ldr	w0, [x6, #4]
  402b8c:	8b0000c6 	add	x6, x6, x0
  402b90:	b94000c0 	ldr	w0, [x6]
  402b94:	34000180 	cbz	w0, 402bc4 <uw_frame_state_for+0x474>
  402b98:	6b08001f 	cmp	w0, w8
  402b9c:	54ffff61 	b.ne	402b88 <uw_frame_state_for+0x438>  // b.any
  402ba0:	91100280 	add	x0, x20, #0x400
  402ba4:	cb0900c3 	sub	x3, x6, x9
  402ba8:	8b000061 	add	x1, x3, x0
  402bac:	b9000804 	str	w4, [x0, #8]
  402bb0:	8b020021 	add	x1, x1, x2
  402bb4:	f8010401 	str	x1, [x0], #16
  402bb8:	eb0000bf 	cmp	x5, x0
  402bbc:	54ffff61 	b.ne	402ba8 <uw_frame_state_for+0x458>  // b.any
  402bc0:	17fffff2 	b	402b88 <uw_frame_state_for+0x438>
  402bc4:	52800022 	mov	w2, #0x1                   	// #1
  402bc8:	3919ce82 	strb	w2, [x20, #1651]
  402bcc:	9108c0e0 	add	x0, x7, #0x230
  402bd0:	52800084 	mov	w4, #0x4                   	// #4
  402bd4:	f9408521 	ldr	x1, [x9, #264]
  402bd8:	cb090000 	sub	x0, x0, x9
  402bdc:	f9401bb7 	ldr	x23, [x29, #48]
  402be0:	d2800c03 	mov	x3, #0x60                  	// #96
  402be4:	cb090029 	sub	x9, x1, x9
  402be8:	f900fa80 	str	x0, [x20, #496]
  402bec:	b901fa82 	str	w2, [x20, #504]
  402bf0:	52800000 	mov	w0, #0x0                   	// #0
  402bf4:	f9030289 	str	x9, [x20, #1536]
  402bf8:	b9060a84 	str	w4, [x20, #1544]
  402bfc:	f9033683 	str	x3, [x20, #1640]
  402c00:	17ffff9a 	b	402a68 <uw_frame_state_for+0x318>
  402c04:	7103fedf 	cmp	w22, #0xff
  402c08:	54ffeda0 	b.eq	4029bc <uw_frame_state_for+0x26c>  // b.none
  402c0c:	aa1303f8 	mov	x24, x19
  402c10:	d2800013 	mov	x19, #0x0                   	// #0
  402c14:	17ffff5e 	b	40298c <uw_frame_state_for+0x23c>
  402c18:	d2800002 	mov	x2, #0x0                   	// #0
  402c1c:	52800003 	mov	w3, #0x0                   	// #0
  402c20:	38401404 	ldrb	w4, [x0], #1
  402c24:	92401881 	and	x1, x4, #0x7f
  402c28:	9ac32021 	lsl	x1, x1, x3
  402c2c:	11001c63 	add	w3, w3, #0x7
  402c30:	aa010042 	orr	x2, x2, x1
  402c34:	373fff64 	tbnz	w4, #7, 402c20 <uw_frame_state_for+0x4d0>
  402c38:	91000673 	add	x19, x19, #0x1
  402c3c:	52800021 	mov	w1, #0x1                   	// #1
  402c40:	3919ca81 	strb	w1, [x20, #1650]
  402c44:	8b020018 	add	x24, x0, x2
  402c48:	39400261 	ldrb	w1, [x19]
  402c4c:	17ffff1c 	b	4028bc <uw_frame_state_for+0x16c>
  402c50:	39400002 	ldrb	w2, [x0]
  402c54:	91000820 	add	x0, x1, #0x2
  402c58:	f9033682 	str	x2, [x20, #1640]
  402c5c:	17ffff12 	b	4028a4 <uw_frame_state_for+0x154>
  402c60:	d2800113 	mov	x19, #0x8                   	// #8
  402c64:	17ffff38 	b	402944 <uw_frame_state_for+0x1f4>
  402c68:	aa1303e0 	mov	x0, x19
  402c6c:	aa0303f3 	mov	x19, x3
  402c70:	17ffff51 	b	4029b4 <uw_frame_state_for+0x264>
  402c74:	350000a0 	cbnz	w0, 402c88 <uw_frame_state_for+0x538>
  402c78:	d2800313 	mov	x19, #0x18                  	// #24
  402c7c:	17ffff32 	b	402944 <uw_frame_state_for+0x1f4>
  402c80:	7100101f 	cmp	w0, #0x4
  402c84:	54ffffa0 	b.eq	402c78 <uw_frame_state_for+0x528>  // b.none
  402c88:	a90573bb 	stp	x27, x28, [x29, #80]
  402c8c:	94002111 	bl	40b0d0 <abort>

0000000000402c90 <execute_stack_op>:
  402c90:	d10983ff 	sub	sp, sp, #0x260
  402c94:	eb01001f 	cmp	x0, x1
  402c98:	a9007bfd 	stp	x29, x30, [sp]
  402c9c:	910003fd 	mov	x29, sp
  402ca0:	f90033a3 	str	x3, [x29, #96]
  402ca4:	540036a2 	b.cs	403378 <execute_stack_op+0x6e8>  // b.hs, b.nlast
  402ca8:	a90153b3 	stp	x19, x20, [x29, #16]
  402cac:	d0000274 	adrp	x20, 450000 <_nl_locale_subfreeres+0xe0>
  402cb0:	a9025bb5 	stp	x21, x22, [x29, #32]
  402cb4:	aa0003f3 	mov	x19, x0
  402cb8:	a90363b7 	stp	x23, x24, [x29, #48]
  402cbc:	910183b6 	add	x22, x29, #0x60
  402cc0:	a9046bb9 	stp	x25, x26, [x29, #64]
  402cc4:	d0000278 	adrp	x24, 450000 <_nl_locale_subfreeres+0xe0>
  402cc8:	aa0103f7 	mov	x23, x1
  402ccc:	aa0203f9 	mov	x25, x2
  402cd0:	91284318 	add	x24, x24, #0xa10
  402cd4:	912fc294 	add	x20, x20, #0xbf0
  402cd8:	52800035 	mov	w21, #0x1                   	// #1
  402cdc:	d503201f 	nop
  402ce0:	39400263 	ldrb	w3, [x19]
  402ce4:	91000661 	add	x1, x19, #0x1
  402ce8:	51000c60 	sub	w0, w3, #0x3
  402cec:	7103b81f 	cmp	w0, #0xee
  402cf0:	54000049 	b.ls	402cf8 <execute_stack_op+0x68>  // b.plast
  402cf4:	940020f7 	bl	40b0d0 <abort>
  402cf8:	78605b00 	ldrh	w0, [x24, w0, uxtw #1]
  402cfc:	10000062 	adr	x2, 402d08 <execute_stack_op+0x78>
  402d00:	8b20a840 	add	x0, x2, w0, sxth #2
  402d04:	d61f0000 	br	x0
  402d08:	f8401260 	ldur	x0, [x19, #1]
  402d0c:	2a1503e2 	mov	w2, w21
  402d10:	91002673 	add	x19, x19, #0x9
  402d14:	d503201f 	nop
  402d18:	7100fc5f 	cmp	w2, #0x3f
  402d1c:	54fffecc 	b.gt	402cf4 <execute_stack_op+0x64>
  402d20:	11000455 	add	w21, w2, #0x1
  402d24:	f822dac0 	str	x0, [x22, w2, sxtw #3]
  402d28:	eb1302ff 	cmp	x23, x19
  402d2c:	54fffda8 	b.hi	402ce0 <execute_stack_op+0x50>  // b.pmore
  402d30:	34fffe35 	cbz	w21, 402cf4 <execute_stack_op+0x64>
  402d34:	510006b5 	sub	w21, w21, #0x1
  402d38:	910183a0 	add	x0, x29, #0x60
  402d3c:	a94153b3 	ldp	x19, x20, [x29, #16]
  402d40:	f875d800 	ldr	x0, [x0, w21, sxtw #3]
  402d44:	a9425bb5 	ldp	x21, x22, [x29, #32]
  402d48:	a94363b7 	ldp	x23, x24, [x29, #48]
  402d4c:	a9446bb9 	ldp	x25, x26, [x29, #64]
  402d50:	a9407bfd 	ldp	x29, x30, [sp]
  402d54:	910983ff 	add	sp, sp, #0x260
  402d58:	d65f03c0 	ret
  402d5c:	aa0103f3 	mov	x19, x1
  402d60:	17fffff2 	b	402d28 <execute_stack_op+0x98>
  402d64:	d2800000 	mov	x0, #0x0                   	// #0
  402d68:	52800004 	mov	w4, #0x0                   	// #0
  402d6c:	d503201f 	nop
  402d70:	38401425 	ldrb	w5, [x1], #1
  402d74:	924018a2 	and	x2, x5, #0x7f
  402d78:	9ac42042 	lsl	x2, x2, x4
  402d7c:	11001c84 	add	w4, w4, #0x7
  402d80:	aa020000 	orr	x0, x0, x2
  402d84:	373fff65 	tbnz	w5, #7, 402d70 <execute_stack_op+0xe0>
  402d88:	7100fc9f 	cmp	w4, #0x3f
  402d8c:	540000c8 	b.hi	402da4 <execute_stack_op+0x114>  // b.pmore
  402d90:	92800002 	mov	x2, #0xffffffffffffffff    	// #-1
  402d94:	f27a00bf 	tst	x5, #0x40
  402d98:	9ac42042 	lsl	x2, x2, x4
  402d9c:	aa020002 	orr	x2, x0, x2
  402da0:	9a801040 	csel	x0, x2, x0, ne  // ne = any
  402da4:	5101c063 	sub	w3, w3, #0x70
  402da8:	7101847f 	cmp	w3, #0x61
  402dac:	54fffa4c 	b.gt	402cf4 <execute_stack_op+0x64>
  402db0:	f941a325 	ldr	x5, [x25, #832]
  402db4:	93407c64 	sxtw	x4, w3
  402db8:	f8647b22 	ldr	x2, [x25, x4, lsl #3]
  402dbc:	b6f00085 	tbz	x5, #62, 402dcc <execute_stack_op+0x13c>
  402dc0:	8b040324 	add	x4, x25, x4
  402dc4:	394d6084 	ldrb	w4, [x4, #856]
  402dc8:	350000e4 	cbnz	w4, 402de4 <execute_stack_op+0x154>
  402dcc:	f0000404 	adrp	x4, 485000 <__pthread_keys+0x3578>
  402dd0:	912a4084 	add	x4, x4, #0xa90
  402dd4:	3863c883 	ldrb	w3, [x4, w3, sxtw]
  402dd8:	7100207f 	cmp	w3, #0x8
  402ddc:	54fff8c1 	b.ne	402cf4 <execute_stack_op+0x64>  // b.any
  402de0:	f9400042 	ldr	x2, [x2]
  402de4:	8b020000 	add	x0, x0, x2
  402de8:	aa0103f3 	mov	x19, x1
  402dec:	2a1503e2 	mov	w2, w21
  402df0:	17ffffca 	b	402d18 <execute_stack_op+0x88>
  402df4:	51014063 	sub	w3, w3, #0x50
  402df8:	7101847f 	cmp	w3, #0x61
  402dfc:	54fff7cc 	b.gt	402cf4 <execute_stack_op+0x64>
  402e00:	f941a324 	ldr	x4, [x25, #832]
  402e04:	93407c62 	sxtw	x2, w3
  402e08:	f8627b20 	ldr	x0, [x25, x2, lsl #3]
  402e0c:	b6f00084 	tbz	x4, #62, 402e1c <execute_stack_op+0x18c>
  402e10:	8b020322 	add	x2, x25, x2
  402e14:	394d6042 	ldrb	w2, [x2, #856]
  402e18:	35001dc2 	cbnz	w2, 4031d0 <execute_stack_op+0x540>
  402e1c:	f0000402 	adrp	x2, 485000 <__pthread_keys+0x3578>
  402e20:	912a4042 	add	x2, x2, #0xa90
  402e24:	3863c842 	ldrb	w2, [x2, w3, sxtw]
  402e28:	7100205f 	cmp	w2, #0x8
  402e2c:	54000f40 	b.eq	403014 <execute_stack_op+0x384>  // b.none
  402e30:	940020a8 	bl	40b0d0 <abort>
  402e34:	5100c060 	sub	w0, w3, #0x30
  402e38:	2a1503e2 	mov	w2, w21
  402e3c:	aa0103f3 	mov	x19, x1
  402e40:	17ffffb6 	b	402d18 <execute_stack_op+0x88>
  402e44:	78801260 	ldursh	x0, [x19, #1]
  402e48:	91000e73 	add	x19, x19, #0x3
  402e4c:	8b000273 	add	x19, x19, x0
  402e50:	17ffffb6 	b	402d28 <execute_stack_op+0x98>
  402e54:	34fff515 	cbz	w21, 402cf4 <execute_stack_op+0x64>
  402e58:	510006b5 	sub	w21, w21, #0x1
  402e5c:	91000e61 	add	x1, x19, #0x3
  402e60:	f875dac0 	ldr	x0, [x22, w21, sxtw #3]
  402e64:	b4fff7c0 	cbz	x0, 402d5c <execute_stack_op+0xcc>
  402e68:	78801273 	ldursh	x19, [x19, #1]
  402e6c:	8b130033 	add	x19, x1, x19
  402e70:	17ffffae 	b	402d28 <execute_stack_op+0x98>
  402e74:	710006bf 	cmp	w21, #0x1
  402e78:	54fff3ed 	b.le	402cf4 <execute_stack_op+0x64>
  402e7c:	51000aa2 	sub	w2, w21, #0x2
  402e80:	510006b5 	sub	w21, w21, #0x1
  402e84:	51006863 	sub	w3, w3, #0x1a
  402e88:	7100507f 	cmp	w3, #0x14
  402e8c:	f862dac0 	ldr	x0, [x22, w2, sxtw #3]
  402e90:	f875dac4 	ldr	x4, [x22, w21, sxtw #3]
  402e94:	54fff308 	b.hi	402cf4 <execute_stack_op+0x64>  // b.pmore
  402e98:	78635a83 	ldrh	w3, [x20, w3, uxtw #1]
  402e9c:	10000065 	adr	x5, 402ea8 <execute_stack_op+0x218>
  402ea0:	8b23a8a3 	add	x3, x5, w3, sxth #2
  402ea4:	d61f0060 	br	x3
  402ea8:	71000abf 	cmp	w21, #0x2
  402eac:	54fff24d 	b.le	402cf4 <execute_stack_op+0x64>
  402eb0:	51000aa2 	sub	w2, w21, #0x2
  402eb4:	510006a3 	sub	w3, w21, #0x1
  402eb8:	51000ea0 	sub	w0, w21, #0x3
  402ebc:	aa0103f3 	mov	x19, x1
  402ec0:	93407c41 	sxtw	x1, w2
  402ec4:	93407c62 	sxtw	x2, w3
  402ec8:	93407c00 	sxtw	x0, w0
  402ecc:	f8617ac5 	ldr	x5, [x22, x1, lsl #3]
  402ed0:	f8627ac3 	ldr	x3, [x22, x2, lsl #3]
  402ed4:	f8607ac4 	ldr	x4, [x22, x0, lsl #3]
  402ed8:	f8227ac5 	str	x5, [x22, x2, lsl #3]
  402edc:	f8217ac4 	str	x4, [x22, x1, lsl #3]
  402ee0:	f8207ac3 	str	x3, [x22, x0, lsl #3]
  402ee4:	17ffff91 	b	402d28 <execute_stack_op+0x98>
  402ee8:	710006bf 	cmp	w21, #0x1
  402eec:	54fff04d 	b.le	402cf4 <execute_stack_op+0x64>
  402ef0:	51000aa0 	sub	w0, w21, #0x2
  402ef4:	510006a2 	sub	w2, w21, #0x1
  402ef8:	aa0103f3 	mov	x19, x1
  402efc:	93407c00 	sxtw	x0, w0
  402f00:	93407c41 	sxtw	x1, w2
  402f04:	f8607ac3 	ldr	x3, [x22, x0, lsl #3]
  402f08:	f8617ac2 	ldr	x2, [x22, x1, lsl #3]
  402f0c:	f8217ac3 	str	x3, [x22, x1, lsl #3]
  402f10:	f8207ac2 	str	x2, [x22, x0, lsl #3]
  402f14:	17ffff85 	b	402d28 <execute_stack_op+0x98>
  402f18:	d2800004 	mov	x4, #0x0                   	// #0
  402f1c:	52800002 	mov	w2, #0x0                   	// #0
  402f20:	38401423 	ldrb	w3, [x1], #1
  402f24:	92401860 	and	x0, x3, #0x7f
  402f28:	9ac22000 	lsl	x0, x0, x2
  402f2c:	11001c42 	add	w2, w2, #0x7
  402f30:	aa000084 	orr	x4, x4, x0
  402f34:	373fff63 	tbnz	w3, #7, 402f20 <execute_stack_op+0x290>
  402f38:	d2800000 	mov	x0, #0x0                   	// #0
  402f3c:	52800003 	mov	w3, #0x0                   	// #0
  402f40:	38401425 	ldrb	w5, [x1], #1
  402f44:	924018a2 	and	x2, x5, #0x7f
  402f48:	9ac32042 	lsl	x2, x2, x3
  402f4c:	11001c63 	add	w3, w3, #0x7
  402f50:	aa020000 	orr	x0, x0, x2
  402f54:	373fff65 	tbnz	w5, #7, 402f40 <execute_stack_op+0x2b0>
  402f58:	7100fc7f 	cmp	w3, #0x3f
  402f5c:	540000c8 	b.hi	402f74 <execute_stack_op+0x2e4>  // b.pmore
  402f60:	92800002 	mov	x2, #0xffffffffffffffff    	// #-1
  402f64:	f27a00bf 	tst	x5, #0x40
  402f68:	9ac32042 	lsl	x2, x2, x3
  402f6c:	aa020002 	orr	x2, x0, x2
  402f70:	9a801040 	csel	x0, x2, x0, ne  // ne = any
  402f74:	2a0403e5 	mov	w5, w4
  402f78:	7101849f 	cmp	w4, #0x61
  402f7c:	54ffebcc 	b.gt	402cf4 <execute_stack_op+0x64>
  402f80:	f941a323 	ldr	x3, [x25, #832]
  402f84:	93407c84 	sxtw	x4, w4
  402f88:	f8647b22 	ldr	x2, [x25, x4, lsl #3]
  402f8c:	b6f00083 	tbz	x3, #62, 402f9c <execute_stack_op+0x30c>
  402f90:	8b040324 	add	x4, x25, x4
  402f94:	394d6083 	ldrb	w3, [x4, #856]
  402f98:	35fff263 	cbnz	w3, 402de4 <execute_stack_op+0x154>
  402f9c:	f0000403 	adrp	x3, 485000 <__pthread_keys+0x3578>
  402fa0:	912a4063 	add	x3, x3, #0xa90
  402fa4:	3865c863 	ldrb	w3, [x3, w5, sxtw]
  402fa8:	7100207f 	cmp	w3, #0x8
  402fac:	54fff1a0 	b.eq	402de0 <execute_stack_op+0x150>  // b.none
  402fb0:	94002048 	bl	40b0d0 <abort>
  402fb4:	d2800003 	mov	x3, #0x0                   	// #0
  402fb8:	52800002 	mov	w2, #0x0                   	// #0
  402fbc:	d503201f 	nop
  402fc0:	38401424 	ldrb	w4, [x1], #1
  402fc4:	92401880 	and	x0, x4, #0x7f
  402fc8:	9ac22000 	lsl	x0, x0, x2
  402fcc:	11001c42 	add	w2, w2, #0x7
  402fd0:	aa000063 	orr	x3, x3, x0
  402fd4:	373fff64 	tbnz	w4, #7, 402fc0 <execute_stack_op+0x330>
  402fd8:	2a0303e4 	mov	w4, w3
  402fdc:	7101847f 	cmp	w3, #0x61
  402fe0:	54ffe8ac 	b.gt	402cf4 <execute_stack_op+0x64>
  402fe4:	f941a322 	ldr	x2, [x25, #832]
  402fe8:	93407c63 	sxtw	x3, w3
  402fec:	f8637b20 	ldr	x0, [x25, x3, lsl #3]
  402ff0:	b6f00082 	tbz	x2, #62, 403000 <execute_stack_op+0x370>
  402ff4:	8b030323 	add	x3, x25, x3
  402ff8:	394d6062 	ldrb	w2, [x3, #856]
  402ffc:	35000ea2 	cbnz	w2, 4031d0 <execute_stack_op+0x540>
  403000:	d0000402 	adrp	x2, 485000 <__pthread_keys+0x3578>
  403004:	912a4042 	add	x2, x2, #0xa90
  403008:	3864c842 	ldrb	w2, [x2, w4, sxtw]
  40300c:	7100205f 	cmp	w2, #0x8
  403010:	54ffe721 	b.ne	402cf4 <execute_stack_op+0x64>  // b.any
  403014:	2a1503e2 	mov	w2, w21
  403018:	aa0103f3 	mov	x19, x1
  40301c:	f9400000 	ldr	x0, [x0]
  403020:	17ffff3e 	b	402d18 <execute_stack_op+0x88>
  403024:	b8801260 	ldursw	x0, [x19, #1]
  403028:	2a1503e2 	mov	w2, w21
  40302c:	91001673 	add	x19, x19, #0x5
  403030:	17ffff3a 	b	402d18 <execute_stack_op+0x88>
  403034:	510006a0 	sub	w0, w21, #0x1
  403038:	39400661 	ldrb	w1, [x19, #1]
  40303c:	91000a73 	add	x19, x19, #0x2
  403040:	93407c00 	sxtw	x0, w0
  403044:	eb00003f 	cmp	x1, x0
  403048:	54ffe56a 	b.ge	402cf4 <execute_stack_op+0x64>  // b.tcont
  40304c:	cb010000 	sub	x0, x0, x1
  403050:	2a1503e2 	mov	w2, w21
  403054:	f8607ac0 	ldr	x0, [x22, x0, lsl #3]
  403058:	17ffff30 	b	402d18 <execute_stack_op+0x88>
  40305c:	710006bf 	cmp	w21, #0x1
  403060:	54ffe4ad 	b.le	402cf4 <execute_stack_op+0x64>
  403064:	51000aa0 	sub	w0, w21, #0x2
  403068:	2a1503e2 	mov	w2, w21
  40306c:	aa0103f3 	mov	x19, x1
  403070:	f860dac0 	ldr	x0, [x22, w0, sxtw #3]
  403074:	17ffff29 	b	402d18 <execute_stack_op+0x88>
  403078:	34ffe3f5 	cbz	w21, 402cf4 <execute_stack_op+0x64>
  40307c:	510006b5 	sub	w21, w21, #0x1
  403080:	aa0103f3 	mov	x19, x1
  403084:	17ffff29 	b	402d28 <execute_stack_op+0x98>
  403088:	34ffe375 	cbz	w21, 402cf4 <execute_stack_op+0x64>
  40308c:	510006a0 	sub	w0, w21, #0x1
  403090:	2a1503e2 	mov	w2, w21
  403094:	aa0103f3 	mov	x19, x1
  403098:	f860dac0 	ldr	x0, [x22, w0, sxtw #3]
  40309c:	17ffff1f 	b	402d18 <execute_stack_op+0x88>
  4030a0:	d2800000 	mov	x0, #0x0                   	// #0
  4030a4:	52800003 	mov	w3, #0x0                   	// #0
  4030a8:	38401424 	ldrb	w4, [x1], #1
  4030ac:	92401882 	and	x2, x4, #0x7f
  4030b0:	9ac32042 	lsl	x2, x2, x3
  4030b4:	11001c63 	add	w3, w3, #0x7
  4030b8:	aa020000 	orr	x0, x0, x2
  4030bc:	373fff64 	tbnz	w4, #7, 4030a8 <execute_stack_op+0x418>
  4030c0:	7100fc7f 	cmp	w3, #0x3f
  4030c4:	54000868 	b.hi	4031d0 <execute_stack_op+0x540>  // b.pmore
  4030c8:	36300844 	tbz	w4, #6, 4031d0 <execute_stack_op+0x540>
  4030cc:	92800004 	mov	x4, #0xffffffffffffffff    	// #-1
  4030d0:	2a1503e2 	mov	w2, w21
  4030d4:	9ac32083 	lsl	x3, x4, x3
  4030d8:	aa0103f3 	mov	x19, x1
  4030dc:	aa030000 	orr	x0, x0, x3
  4030e0:	17ffff0e 	b	402d18 <execute_stack_op+0x88>
  4030e4:	aa0103f3 	mov	x19, x1
  4030e8:	d2800000 	mov	x0, #0x0                   	// #0
  4030ec:	52800002 	mov	w2, #0x0                   	// #0
  4030f0:	38401663 	ldrb	w3, [x19], #1
  4030f4:	92401861 	and	x1, x3, #0x7f
  4030f8:	9ac22021 	lsl	x1, x1, x2
  4030fc:	11001c42 	add	w2, w2, #0x7
  403100:	aa010000 	orr	x0, x0, x1
  403104:	373fff63 	tbnz	w3, #7, 4030f0 <execute_stack_op+0x460>
  403108:	2a1503e2 	mov	w2, w21
  40310c:	17ffff03 	b	402d18 <execute_stack_op+0x88>
  403110:	39800660 	ldrsb	x0, [x19, #1]
  403114:	2a1503e2 	mov	w2, w21
  403118:	91000a73 	add	x19, x19, #0x2
  40311c:	17fffeff 	b	402d18 <execute_stack_op+0x88>
  403120:	39400660 	ldrb	w0, [x19, #1]
  403124:	2a1503e2 	mov	w2, w21
  403128:	91000a73 	add	x19, x19, #0x2
  40312c:	17fffefb 	b	402d18 <execute_stack_op+0x88>
  403130:	34ffde35 	cbz	w21, 402cf4 <execute_stack_op+0x64>
  403134:	510006a2 	sub	w2, w21, #0x1
  403138:	71007c7f 	cmp	w3, #0x1f
  40313c:	f862dac0 	ldr	x0, [x22, w2, sxtw #3]
  403140:	54000920 	b.eq	403264 <execute_stack_op+0x5d4>  // b.none
  403144:	540004c9 	b.ls	4031dc <execute_stack_op+0x54c>  // b.plast
  403148:	71008c7f 	cmp	w3, #0x23
  40314c:	54000740 	b.eq	403234 <execute_stack_op+0x5a4>  // b.none
  403150:	7102507f 	cmp	w3, #0x94
  403154:	540005a0 	b.eq	403208 <execute_stack_op+0x578>  // b.none
  403158:	7100807f 	cmp	w3, #0x20
  40315c:	54ffdcc1 	b.ne	402cf4 <execute_stack_op+0x64>  // b.any
  403160:	aa2003e0 	mvn	x0, x0
  403164:	aa0103f3 	mov	x19, x1
  403168:	17fffeec 	b	402d18 <execute_stack_op+0x88>
  40316c:	3940067a 	ldrb	w26, [x19, #1]
  403170:	aa1903e1 	mov	x1, x25
  403174:	2a1a03e0 	mov	w0, w26
  403178:	97fffb10 	bl	401db8 <base_of_encoded_value>
  40317c:	91000a62 	add	x2, x19, #0x2
  403180:	aa0003e1 	mov	x1, x0
  403184:	910163a3 	add	x3, x29, #0x58
  403188:	2a1a03e0 	mov	w0, w26
  40318c:	97fffab9 	bl	401c70 <read_encoded_value_with_base>
  403190:	aa0003f3 	mov	x19, x0
  403194:	2a1503e2 	mov	w2, w21
  403198:	f9402fa0 	ldr	x0, [x29, #88]
  40319c:	17fffedf 	b	402d18 <execute_stack_op+0x88>
  4031a0:	78801260 	ldursh	x0, [x19, #1]
  4031a4:	2a1503e2 	mov	w2, w21
  4031a8:	91000e73 	add	x19, x19, #0x3
  4031ac:	17fffedb 	b	402d18 <execute_stack_op+0x88>
  4031b0:	78401260 	ldurh	w0, [x19, #1]
  4031b4:	2a1503e2 	mov	w2, w21
  4031b8:	91000e73 	add	x19, x19, #0x3
  4031bc:	17fffed7 	b	402d18 <execute_stack_op+0x88>
  4031c0:	b8401260 	ldur	w0, [x19, #1]
  4031c4:	2a1503e2 	mov	w2, w21
  4031c8:	91001673 	add	x19, x19, #0x5
  4031cc:	17fffed3 	b	402d18 <execute_stack_op+0x88>
  4031d0:	2a1503e2 	mov	w2, w21
  4031d4:	aa0103f3 	mov	x19, x1
  4031d8:	17fffed0 	b	402d18 <execute_stack_op+0x88>
  4031dc:	7100187f 	cmp	w3, #0x6
  4031e0:	540000e0 	b.eq	4031fc <execute_stack_op+0x56c>  // b.none
  4031e4:	7100647f 	cmp	w3, #0x19
  4031e8:	54ffd861 	b.ne	402cf4 <execute_stack_op+0x64>  // b.any
  4031ec:	f100001f 	cmp	x0, #0x0
  4031f0:	aa0103f3 	mov	x19, x1
  4031f4:	da80a400 	cneg	x0, x0, lt  // lt = tstop
  4031f8:	17fffec8 	b	402d18 <execute_stack_op+0x88>
  4031fc:	aa0103f3 	mov	x19, x1
  403200:	f9400000 	ldr	x0, [x0]
  403204:	17fffec5 	b	402d18 <execute_stack_op+0x88>
  403208:	39400661 	ldrb	w1, [x19, #1]
  40320c:	91000a73 	add	x19, x19, #0x2
  403210:	7100083f 	cmp	w1, #0x2
  403214:	54000ae0 	b.eq	403370 <execute_stack_op+0x6e0>  // b.none
  403218:	540002c9 	b.ls	403270 <execute_stack_op+0x5e0>  // b.plast
  40321c:	7100103f 	cmp	w1, #0x4
  403220:	54000a40 	b.eq	403368 <execute_stack_op+0x6d8>  // b.none
  403224:	7100203f 	cmp	w1, #0x8
  403228:	54ffd661 	b.ne	402cf4 <execute_stack_op+0x64>  // b.any
  40322c:	f9400000 	ldr	x0, [x0]
  403230:	17fffeba 	b	402d18 <execute_stack_op+0x88>
  403234:	d2800006 	mov	x6, #0x0                   	// #0
  403238:	52800004 	mov	w4, #0x0                   	// #0
  40323c:	d503201f 	nop
  403240:	38401425 	ldrb	w5, [x1], #1
  403244:	924018a3 	and	x3, x5, #0x7f
  403248:	9ac42063 	lsl	x3, x3, x4
  40324c:	11001c84 	add	w4, w4, #0x7
  403250:	aa0300c6 	orr	x6, x6, x3
  403254:	373fff65 	tbnz	w5, #7, 403240 <execute_stack_op+0x5b0>
  403258:	8b060000 	add	x0, x0, x6
  40325c:	aa0103f3 	mov	x19, x1
  403260:	17fffeae 	b	402d18 <execute_stack_op+0x88>
  403264:	cb0003e0 	neg	x0, x0
  403268:	aa0103f3 	mov	x19, x1
  40326c:	17fffeab 	b	402d18 <execute_stack_op+0x88>
  403270:	7100043f 	cmp	w1, #0x1
  403274:	54ffd401 	b.ne	402cf4 <execute_stack_op+0x64>  // b.any
  403278:	39400000 	ldrb	w0, [x0]
  40327c:	17fffea7 	b	402d18 <execute_stack_op+0x88>
  403280:	9ac40803 	udiv	x3, x0, x4
  403284:	aa0103f3 	mov	x19, x1
  403288:	9b048060 	msub	x0, x3, x4, x0
  40328c:	17fffea3 	b	402d18 <execute_stack_op+0x88>
  403290:	9b047c00 	mul	x0, x0, x4
  403294:	aa0103f3 	mov	x19, x1
  403298:	17fffea0 	b	402d18 <execute_stack_op+0x88>
  40329c:	aa040000 	orr	x0, x0, x4
  4032a0:	aa0103f3 	mov	x19, x1
  4032a4:	17fffe9d 	b	402d18 <execute_stack_op+0x88>
  4032a8:	8b040000 	add	x0, x0, x4
  4032ac:	aa0103f3 	mov	x19, x1
  4032b0:	17fffe9a 	b	402d18 <execute_stack_op+0x88>
  4032b4:	9ac42000 	lsl	x0, x0, x4
  4032b8:	aa0103f3 	mov	x19, x1
  4032bc:	17fffe97 	b	402d18 <execute_stack_op+0x88>
  4032c0:	9ac42400 	lsr	x0, x0, x4
  4032c4:	aa0103f3 	mov	x19, x1
  4032c8:	17fffe94 	b	402d18 <execute_stack_op+0x88>
  4032cc:	9ac42800 	asr	x0, x0, x4
  4032d0:	aa0103f3 	mov	x19, x1
  4032d4:	17fffe91 	b	402d18 <execute_stack_op+0x88>
  4032d8:	ca040000 	eor	x0, x0, x4
  4032dc:	aa0103f3 	mov	x19, x1
  4032e0:	17fffe8e 	b	402d18 <execute_stack_op+0x88>
  4032e4:	eb04001f 	cmp	x0, x4
  4032e8:	aa0103f3 	mov	x19, x1
  4032ec:	9a9fa7e0 	cset	x0, lt  // lt = tstop
  4032f0:	17fffe8a 	b	402d18 <execute_stack_op+0x88>
  4032f4:	eb04001f 	cmp	x0, x4
  4032f8:	aa0103f3 	mov	x19, x1
  4032fc:	9a9f07e0 	cset	x0, ne  // ne = any
  403300:	17fffe86 	b	402d18 <execute_stack_op+0x88>
  403304:	9ac40c00 	sdiv	x0, x0, x4
  403308:	aa0103f3 	mov	x19, x1
  40330c:	17fffe83 	b	402d18 <execute_stack_op+0x88>
  403310:	cb040000 	sub	x0, x0, x4
  403314:	aa0103f3 	mov	x19, x1
  403318:	17fffe80 	b	402d18 <execute_stack_op+0x88>
  40331c:	8a040000 	and	x0, x0, x4
  403320:	aa0103f3 	mov	x19, x1
  403324:	17fffe7d 	b	402d18 <execute_stack_op+0x88>
  403328:	eb04001f 	cmp	x0, x4
  40332c:	aa0103f3 	mov	x19, x1
  403330:	9a9f17e0 	cset	x0, eq  // eq = none
  403334:	17fffe79 	b	402d18 <execute_stack_op+0x88>
  403338:	eb04001f 	cmp	x0, x4
  40333c:	aa0103f3 	mov	x19, x1
  403340:	9a9fb7e0 	cset	x0, ge  // ge = tcont
  403344:	17fffe75 	b	402d18 <execute_stack_op+0x88>
  403348:	eb04001f 	cmp	x0, x4
  40334c:	aa0103f3 	mov	x19, x1
  403350:	9a9fd7e0 	cset	x0, gt
  403354:	17fffe71 	b	402d18 <execute_stack_op+0x88>
  403358:	eb04001f 	cmp	x0, x4
  40335c:	aa0103f3 	mov	x19, x1
  403360:	9a9fc7e0 	cset	x0, le
  403364:	17fffe6d 	b	402d18 <execute_stack_op+0x88>
  403368:	b9400000 	ldr	w0, [x0]
  40336c:	17fffe6b 	b	402d18 <execute_stack_op+0x88>
  403370:	79400000 	ldrh	w0, [x0]
  403374:	17fffe69 	b	402d18 <execute_stack_op+0x88>
  403378:	aa0303e0 	mov	x0, x3
  40337c:	17fffe75 	b	402d50 <execute_stack_op+0xc0>

0000000000403380 <uw_update_context_1>:
  403380:	d110c3ff 	sub	sp, sp, #0x430
  403384:	d2807802 	mov	x2, #0x3c0                 	// #960
  403388:	a9007bfd 	stp	x29, x30, [sp]
  40338c:	910003fd 	mov	x29, sp
  403390:	a90153f3 	stp	x19, x20, [sp, #16]
  403394:	9101c3b4 	add	x20, x29, #0x70
  403398:	a9025bf5 	stp	x21, x22, [sp, #32]
  40339c:	a90363f7 	stp	x23, x24, [sp, #48]
  4033a0:	a9046bf9 	stp	x25, x26, [sp, #64]
  4033a4:	aa0103f9 	mov	x25, x1
  4033a8:	a90573fb 	stp	x27, x28, [sp, #80]
  4033ac:	aa0003e1 	mov	x1, x0
  4033b0:	aa0003fb 	mov	x27, x0
  4033b4:	aa1403e0 	mov	x0, x20
  4033b8:	97fff3a6 	bl	400250 <.plt+0x10>
  4033bc:	f941dba1 	ldr	x1, [x29, #944]
  4033c0:	b6f00961 	tbz	x1, #62, 4034ec <uw_update_context_1+0x16c>
  4033c4:	394f9fa0 	ldrb	w0, [x29, #999]
  4033c8:	34000920 	cbz	w0, 4034ec <uw_update_context_1+0x16c>
  4033cc:	f941a360 	ldr	x0, [x27, #832]
  4033d0:	b6f00040 	tbz	x0, #62, 4033d8 <uw_update_context_1+0x58>
  4033d4:	390ddf7f 	strb	wzr, [x27, #887]
  4033d8:	b9464320 	ldr	w0, [x25, #1600]
  4033dc:	f9007f7f 	str	xzr, [x27, #248]
  4033e0:	7100041f 	cmp	w0, #0x1
  4033e4:	54001260 	b.eq	403630 <uw_update_context_1+0x2b0>  // b.none
  4033e8:	7100081f 	cmp	w0, #0x2
  4033ec:	54000d41 	b.ne	403594 <uw_update_context_1+0x214>  // b.any
  4033f0:	f9431f20 	ldr	x0, [x25, #1592]
  4033f4:	d2800001 	mov	x1, #0x0                   	// #0
  4033f8:	52800003 	mov	w3, #0x0                   	// #0
  4033fc:	d503201f 	nop
  403400:	38401404 	ldrb	w4, [x0], #1
  403404:	92401882 	and	x2, x4, #0x7f
  403408:	9ac32042 	lsl	x2, x2, x3
  40340c:	11001c63 	add	w3, w3, #0x7
  403410:	aa020021 	orr	x1, x1, x2
  403414:	373fff64 	tbnz	w4, #7, 403400 <uw_update_context_1+0x80>
  403418:	d2800003 	mov	x3, #0x0                   	// #0
  40341c:	aa1403e2 	mov	x2, x20
  403420:	8b010001 	add	x1, x0, x1
  403424:	97fffe1b 	bl	402c90 <execute_stack_op>
  403428:	aa0003fc 	mov	x28, x0
  40342c:	d0000418 	adrp	x24, 485000 <__pthread_keys+0x3578>
  403430:	aa1903fa 	mov	x26, x25
  403434:	912a4316 	add	x22, x24, #0xa90
  403438:	910f23b7 	add	x23, x29, #0x3c8
  40343c:	d2800013 	mov	x19, #0x0                   	// #0
  403440:	52800035 	mov	w21, #0x1                   	// #1
  403444:	f9018b7c 	str	x28, [x27, #784]
  403448:	b9400b40 	ldr	w0, [x26, #8]
  40344c:	71000c1f 	cmp	w0, #0x3
  403450:	54000a40 	b.eq	403598 <uw_update_context_1+0x218>  // b.none
  403454:	54000668 	b.hi	403520 <uw_update_context_1+0x1a0>  // b.pmore
  403458:	7100041f 	cmp	w0, #0x1
  40345c:	54000c00 	b.eq	4035dc <uw_update_context_1+0x25c>  // b.none
  403460:	7100081f 	cmp	w0, #0x2
  403464:	54000161 	b.ne	403490 <uw_update_context_1+0x110>  // b.any
  403468:	f9400341 	ldr	x1, [x26]
  40346c:	93407c20 	sxtw	x0, w1
  403470:	38606ae2 	ldrb	w2, [x23, x0]
  403474:	35000be2 	cbnz	w2, 4035f0 <uw_update_context_1+0x270>
  403478:	f941a361 	ldr	x1, [x27, #832]
  40347c:	f8607a80 	ldr	x0, [x20, x0, lsl #3]
  403480:	b6f00061 	tbz	x1, #62, 40348c <uw_update_context_1+0x10c>
  403484:	8b130361 	add	x1, x27, x19
  403488:	390d603f 	strb	wzr, [x1, #856]
  40348c:	f8337b60 	str	x0, [x27, x19, lsl #3]
  403490:	91000673 	add	x19, x19, #0x1
  403494:	9100435a 	add	x26, x26, #0x10
  403498:	f1018a7f 	cmp	x19, #0x62
  40349c:	54fffd61 	b.ne	403448 <uw_update_context_1+0xc8>  // b.any
  4034a0:	f941a360 	ldr	x0, [x27, #832]
  4034a4:	3959cf22 	ldrb	w2, [x25, #1651]
  4034a8:	9240f801 	and	x1, x0, #0x7fffffffffffffff
  4034ac:	b2410000 	orr	x0, x0, #0x8000000000000000
  4034b0:	7100005f 	cmp	w2, #0x0
  4034b4:	9a811000 	csel	x0, x0, x1, ne  // ne = any
  4034b8:	f901a360 	str	x0, [x27, #832]
  4034bc:	f9411321 	ldr	x1, [x25, #544]
  4034c0:	36000061 	tbz	w1, #0, 4034cc <uw_update_context_1+0x14c>
  4034c4:	b2430000 	orr	x0, x0, #0x2000000000000000
  4034c8:	f901a360 	str	x0, [x27, #832]
  4034cc:	a9407bfd 	ldp	x29, x30, [sp]
  4034d0:	a94153f3 	ldp	x19, x20, [sp, #16]
  4034d4:	a9425bf5 	ldp	x21, x22, [sp, #32]
  4034d8:	a94363f7 	ldp	x23, x24, [sp, #48]
  4034dc:	a9446bf9 	ldp	x25, x26, [sp, #64]
  4034e0:	a94573fb 	ldp	x27, x28, [sp, #80]
  4034e4:	9110c3ff 	add	sp, sp, #0x430
  4034e8:	d65f03c0 	ret
  4034ec:	f9407e80 	ldr	x0, [x20, #248]
  4034f0:	b5fff6e0 	cbnz	x0, 4033cc <uw_update_context_1+0x4c>
  4034f4:	d0000402 	adrp	x2, 485000 <__pthread_keys+0x3578>
  4034f8:	f9418b60 	ldr	x0, [x27, #784]
  4034fc:	396abc42 	ldrb	w2, [x2, #2735]
  403500:	7100205f 	cmp	w2, #0x8
  403504:	54000481 	b.ne	403594 <uw_update_context_1+0x214>  // b.any
  403508:	f90037a0 	str	x0, [x29, #104]
  40350c:	b6f00041 	tbz	x1, #62, 403514 <uw_update_context_1+0x194>
  403510:	390f9fbf 	strb	wzr, [x29, #999]
  403514:	9101a3a0 	add	x0, x29, #0x68
  403518:	f9007e80 	str	x0, [x20, #248]
  40351c:	17ffffac 	b	4033cc <uw_update_context_1+0x4c>
  403520:	7100101f 	cmp	w0, #0x4
  403524:	540002e0 	b.eq	403580 <uw_update_context_1+0x200>  // b.none
  403528:	7100141f 	cmp	w0, #0x5
  40352c:	54fffb21 	b.ne	403490 <uw_update_context_1+0x110>  // b.any
  403530:	f9400340 	ldr	x0, [x26]
  403534:	d2800001 	mov	x1, #0x0                   	// #0
  403538:	52800003 	mov	w3, #0x0                   	// #0
  40353c:	d503201f 	nop
  403540:	38401404 	ldrb	w4, [x0], #1
  403544:	92401882 	and	x2, x4, #0x7f
  403548:	9ac32042 	lsl	x2, x2, x3
  40354c:	11001c63 	add	w3, w3, #0x7
  403550:	aa020021 	orr	x1, x1, x2
  403554:	373fff64 	tbnz	w4, #7, 403540 <uw_update_context_1+0x1c0>
  403558:	8b010001 	add	x1, x0, x1
  40355c:	aa1c03e3 	mov	x3, x28
  403560:	aa1403e2 	mov	x2, x20
  403564:	97fffdcb 	bl	402c90 <execute_stack_op>
  403568:	38766a61 	ldrb	w1, [x19, x22]
  40356c:	7100203f 	cmp	w1, #0x8
  403570:	54000128 	b.hi	403594 <uw_update_context_1+0x214>  // b.pmore
  403574:	8b130361 	add	x1, x27, x19
  403578:	390d6035 	strb	w21, [x1, #856]
  40357c:	17ffffc4 	b	40348c <uw_update_context_1+0x10c>
  403580:	38766a61 	ldrb	w1, [x19, x22]
  403584:	f9400340 	ldr	x0, [x26]
  403588:	7100203f 	cmp	w1, #0x8
  40358c:	8b000380 	add	x0, x28, x0
  403590:	54ffff29 	b.ls	403574 <uw_update_context_1+0x1f4>  // b.plast
  403594:	94001ecf 	bl	40b0d0 <abort>
  403598:	f9400340 	ldr	x0, [x26]
  40359c:	d2800001 	mov	x1, #0x0                   	// #0
  4035a0:	52800003 	mov	w3, #0x0                   	// #0
  4035a4:	d503201f 	nop
  4035a8:	38401404 	ldrb	w4, [x0], #1
  4035ac:	92401882 	and	x2, x4, #0x7f
  4035b0:	9ac32042 	lsl	x2, x2, x3
  4035b4:	11001c63 	add	w3, w3, #0x7
  4035b8:	aa020021 	orr	x1, x1, x2
  4035bc:	373fff64 	tbnz	w4, #7, 4035a8 <uw_update_context_1+0x228>
  4035c0:	8b010001 	add	x1, x0, x1
  4035c4:	aa1c03e3 	mov	x3, x28
  4035c8:	aa1403e2 	mov	x2, x20
  4035cc:	97fffdb1 	bl	402c90 <execute_stack_op>
  4035d0:	f941a361 	ldr	x1, [x27, #832]
  4035d4:	b6f7f5c1 	tbz	x1, #62, 40348c <uw_update_context_1+0x10c>
  4035d8:	17ffffab 	b	403484 <uw_update_context_1+0x104>
  4035dc:	f941a361 	ldr	x1, [x27, #832]
  4035e0:	f9400340 	ldr	x0, [x26]
  4035e4:	8b000380 	add	x0, x28, x0
  4035e8:	b6f7f521 	tbz	x1, #62, 40348c <uw_update_context_1+0x10c>
  4035ec:	17ffffa6 	b	403484 <uw_update_context_1+0x104>
  4035f0:	7101843f 	cmp	w1, #0x61
  4035f4:	54fffd0c 	b.gt	403594 <uw_update_context_1+0x214>
  4035f8:	f941dba2 	ldr	x2, [x29, #944]
  4035fc:	f8607a81 	ldr	x1, [x20, x0, lsl #3]
  403600:	b6f000e2 	tbz	x2, #62, 40361c <uw_update_context_1+0x29c>
  403604:	aa0103e0 	mov	x0, x1
  403608:	912a4301 	add	x1, x24, #0xa90
  40360c:	38616a61 	ldrb	w1, [x19, x1]
  403610:	7100203f 	cmp	w1, #0x8
  403614:	54fffb09 	b.ls	403574 <uw_update_context_1+0x1f4>  // b.plast
  403618:	94001eae 	bl	40b0d0 <abort>
  40361c:	38606ac0 	ldrb	w0, [x22, x0]
  403620:	7100201f 	cmp	w0, #0x8
  403624:	54fffb81 	b.ne	403594 <uw_update_context_1+0x214>  // b.any
  403628:	f9400020 	ldr	x0, [x1]
  40362c:	17fffff7 	b	403608 <uw_update_context_1+0x288>
  403630:	f9431b20 	ldr	x0, [x25, #1584]
  403634:	7101841f 	cmp	w0, #0x61
  403638:	54fffaec 	b.gt	403594 <uw_update_context_1+0x214>
  40363c:	93407c00 	sxtw	x0, w0
  403640:	f8607a9c 	ldr	x28, [x20, x0, lsl #3]
  403644:	b7f00141 	tbnz	x1, #62, 40366c <uw_update_context_1+0x2ec>
  403648:	d0000401 	adrp	x1, 485000 <__pthread_keys+0x3578>
  40364c:	912a4021 	add	x1, x1, #0xa90
  403650:	38606820 	ldrb	w0, [x1, x0]
  403654:	7100201f 	cmp	w0, #0x8
  403658:	54fff9e1 	b.ne	403594 <uw_update_context_1+0x214>  // b.any
  40365c:	f940039c 	ldr	x28, [x28]
  403660:	f9431720 	ldr	x0, [x25, #1576]
  403664:	8b00039c 	add	x28, x28, x0
  403668:	17ffff71 	b	40342c <uw_update_context_1+0xac>
  40366c:	910f23a1 	add	x1, x29, #0x3c8
  403670:	38606821 	ldrb	w1, [x1, x0]
  403674:	34fffea1 	cbz	w1, 403648 <uw_update_context_1+0x2c8>
  403678:	17fffffa 	b	403660 <uw_update_context_1+0x2e0>
  40367c:	d503201f 	nop

0000000000403680 <uw_init_context_1>:
  403680:	d11b43ff 	sub	sp, sp, #0x6d0
  403684:	a9007bfd 	stp	x29, x30, [sp]
  403688:	910003fd 	mov	x29, sp
  40368c:	d50320ff 	xpaclri
  403690:	a90153f3 	stp	x19, x20, [sp, #16]
  403694:	aa0003f3 	mov	x19, x0
  403698:	a9025bf5 	stp	x21, x22, [sp, #32]
  40369c:	aa1e03f4 	mov	x20, x30
  4036a0:	f9001bf7 	str	x23, [sp, #48]
  4036a4:	aa0203f6 	mov	x22, x2
  4036a8:	aa0103f7 	mov	x23, x1
  4036ac:	d2807802 	mov	x2, #0x3c0                 	// #960
  4036b0:	52800001 	mov	w1, #0x0                   	// #0
  4036b4:	97fff2eb 	bl	400260 <.plt+0x20>
  4036b8:	d2e80000 	mov	x0, #0x4000000000000000    	// #4611686018427387904
  4036bc:	f9018e74 	str	x20, [x19, #792]
  4036c0:	f901a260 	str	x0, [x19, #832]
  4036c4:	910143b5 	add	x21, x29, #0x50
  4036c8:	aa1503e1 	mov	x1, x21
  4036cc:	aa1303e0 	mov	x0, x19
  4036d0:	97fffc20 	bl	402750 <uw_frame_state_for>
  4036d4:	35000d80 	cbnz	w0, 403884 <uw_init_context_1+0x204>
  4036d8:	900003e0 	adrp	x0, 47f000 <__FRAME_END__+0x10164>
  4036dc:	d0000414 	adrp	x20, 485000 <__pthread_keys+0x3578>
  4036e0:	f947ac00 	ldr	x0, [x0, #3928]
  4036e4:	b40000e0 	cbz	x0, 403700 <uw_init_context_1+0x80>
  4036e8:	912a4280 	add	x0, x20, #0xa90
  4036ec:	f0ffffe1 	adrp	x1, 402000 <execute_cfa_program+0x1d8>
  4036f0:	91019000 	add	x0, x0, #0x64
  4036f4:	9118e021 	add	x1, x1, #0x638
  4036f8:	d503201f 	nop
  4036fc:	34000080 	cbz	w0, 40370c <uw_init_context_1+0x8c>
  403700:	396a4281 	ldrb	w1, [x20, #2704]
  403704:	912a4280 	add	x0, x20, #0xa90
  403708:	34000381 	cbz	w1, 403778 <uw_init_context_1+0xf8>
  40370c:	912a4294 	add	x20, x20, #0xa90
  403710:	39407e80 	ldrb	w0, [x20, #31]
  403714:	7100201f 	cmp	w0, #0x8
  403718:	54000b61 	b.ne	403884 <uw_init_context_1+0x204>  // b.any
  40371c:	f941a260 	ldr	x0, [x19, #832]
  403720:	f90027b7 	str	x23, [x29, #72]
  403724:	b6f00040 	tbz	x0, #62, 40372c <uw_init_context_1+0xac>
  403728:	390dde7f 	strb	wzr, [x19, #887]
  40372c:	910123a0 	add	x0, x29, #0x48
  403730:	f9007e60 	str	x0, [x19, #248]
  403734:	d28003e1 	mov	x1, #0x1f                  	// #31
  403738:	52800020 	mov	w0, #0x1                   	// #1
  40373c:	f9033fbf 	str	xzr, [x29, #1656]
  403740:	f90343a1 	str	x1, [x29, #1664]
  403744:	aa1503e1 	mov	x1, x21
  403748:	b90693a0 	str	w0, [x29, #1680]
  40374c:	aa1303e0 	mov	x0, x19
  403750:	97ffff0c 	bl	403380 <uw_update_context_1>
  403754:	f9401bf7 	ldr	x23, [sp, #48]
  403758:	aa1603fe 	mov	x30, x22
  40375c:	d50320ff 	xpaclri
  403760:	a9425bf5 	ldp	x21, x22, [sp, #32]
  403764:	f9018e7e 	str	x30, [x19, #792]
  403768:	a9407bfd 	ldp	x29, x30, [sp]
  40376c:	a94153f3 	ldp	x19, x20, [sp, #16]
  403770:	911b43ff 	add	sp, sp, #0x6d0
  403774:	d65f03c0 	ret
  403778:	52800101 	mov	w1, #0x8                   	// #8
  40377c:	392a4281 	strb	w1, [x20, #2704]
  403780:	39000401 	strb	w1, [x0, #1]
  403784:	39000801 	strb	w1, [x0, #2]
  403788:	39000c01 	strb	w1, [x0, #3]
  40378c:	39001001 	strb	w1, [x0, #4]
  403790:	39001401 	strb	w1, [x0, #5]
  403794:	39001801 	strb	w1, [x0, #6]
  403798:	39001c01 	strb	w1, [x0, #7]
  40379c:	39002001 	strb	w1, [x0, #8]
  4037a0:	39002401 	strb	w1, [x0, #9]
  4037a4:	39002801 	strb	w1, [x0, #10]
  4037a8:	39002c01 	strb	w1, [x0, #11]
  4037ac:	39003001 	strb	w1, [x0, #12]
  4037b0:	39003401 	strb	w1, [x0, #13]
  4037b4:	39003801 	strb	w1, [x0, #14]
  4037b8:	39003c01 	strb	w1, [x0, #15]
  4037bc:	39004001 	strb	w1, [x0, #16]
  4037c0:	39004401 	strb	w1, [x0, #17]
  4037c4:	39004801 	strb	w1, [x0, #18]
  4037c8:	39004c01 	strb	w1, [x0, #19]
  4037cc:	39005001 	strb	w1, [x0, #20]
  4037d0:	39005401 	strb	w1, [x0, #21]
  4037d4:	39005801 	strb	w1, [x0, #22]
  4037d8:	39005c01 	strb	w1, [x0, #23]
  4037dc:	39006001 	strb	w1, [x0, #24]
  4037e0:	39006401 	strb	w1, [x0, #25]
  4037e4:	39006801 	strb	w1, [x0, #26]
  4037e8:	39006c01 	strb	w1, [x0, #27]
  4037ec:	39007001 	strb	w1, [x0, #28]
  4037f0:	39007401 	strb	w1, [x0, #29]
  4037f4:	39007801 	strb	w1, [x0, #30]
  4037f8:	39007c01 	strb	w1, [x0, #31]
  4037fc:	39010001 	strb	w1, [x0, #64]
  403800:	39010401 	strb	w1, [x0, #65]
  403804:	39010801 	strb	w1, [x0, #66]
  403808:	39010c01 	strb	w1, [x0, #67]
  40380c:	39011001 	strb	w1, [x0, #68]
  403810:	39011401 	strb	w1, [x0, #69]
  403814:	39011801 	strb	w1, [x0, #70]
  403818:	39011c01 	strb	w1, [x0, #71]
  40381c:	39012001 	strb	w1, [x0, #72]
  403820:	39012401 	strb	w1, [x0, #73]
  403824:	39012801 	strb	w1, [x0, #74]
  403828:	39012c01 	strb	w1, [x0, #75]
  40382c:	39013001 	strb	w1, [x0, #76]
  403830:	39013401 	strb	w1, [x0, #77]
  403834:	39013801 	strb	w1, [x0, #78]
  403838:	39013c01 	strb	w1, [x0, #79]
  40383c:	39014001 	strb	w1, [x0, #80]
  403840:	39014401 	strb	w1, [x0, #81]
  403844:	39014801 	strb	w1, [x0, #82]
  403848:	39014c01 	strb	w1, [x0, #83]
  40384c:	39015001 	strb	w1, [x0, #84]
  403850:	39015401 	strb	w1, [x0, #85]
  403854:	39015801 	strb	w1, [x0, #86]
  403858:	39015c01 	strb	w1, [x0, #87]
  40385c:	39016001 	strb	w1, [x0, #88]
  403860:	39016401 	strb	w1, [x0, #89]
  403864:	39016801 	strb	w1, [x0, #90]
  403868:	39016c01 	strb	w1, [x0, #91]
  40386c:	39017001 	strb	w1, [x0, #92]
  403870:	39017401 	strb	w1, [x0, #93]
  403874:	39017801 	strb	w1, [x0, #94]
  403878:	39017c01 	strb	w1, [x0, #95]
  40387c:	39018001 	strb	w1, [x0, #96]
  403880:	17ffffa3 	b	40370c <uw_init_context_1+0x8c>
  403884:	94001e13 	bl	40b0d0 <abort>

0000000000403888 <uw_update_context>:
  403888:	a9be7bfd 	stp	x29, x30, [sp, #-32]!
  40388c:	910003fd 	mov	x29, sp
  403890:	a90153f3 	stp	x19, x20, [sp, #16]
  403894:	aa0103f4 	mov	x20, x1
  403898:	aa0003f3 	mov	x19, x0
  40389c:	97fffeb9 	bl	403380 <uw_update_context_1>
  4038a0:	f9433680 	ldr	x0, [x20, #1640]
  4038a4:	8b001281 	add	x1, x20, x0, lsl #4
  4038a8:	b9400821 	ldr	w1, [x1, #8]
  4038ac:	7100183f 	cmp	w1, #0x6
  4038b0:	54000340 	b.eq	403918 <uw_update_context+0x90>  // b.none
  4038b4:	7101841f 	cmp	w0, #0x61
  4038b8:	5400038c 	b.gt	403928 <uw_update_context+0xa0>
  4038bc:	f941a261 	ldr	x1, [x19, #832]
  4038c0:	93407c00 	sxtw	x0, w0
  4038c4:	f8607a71 	ldr	x17, [x19, x0, lsl #3]
  4038c8:	b7f00201 	tbnz	x1, #62, 403908 <uw_update_context+0x80>
  4038cc:	d0000401 	adrp	x1, 485000 <__pthread_keys+0x3578>
  4038d0:	912a4021 	add	x1, x1, #0xa90
  4038d4:	38606820 	ldrb	w0, [x1, x0]
  4038d8:	7100201f 	cmp	w0, #0x8
  4038dc:	54000261 	b.ne	403928 <uw_update_context+0xa0>  // b.any
  4038e0:	f9400231 	ldr	x17, [x17]
  4038e4:	f9411280 	ldr	x0, [x20, #544]
  4038e8:	f9018e71 	str	x17, [x19, #792]
  4038ec:	36000060 	tbz	w0, #0, 4038f8 <uw_update_context+0x70>
  4038f0:	f9418a70 	ldr	x16, [x19, #784]
  4038f4:	d503219f 	autia1716
  4038f8:	f9018e71 	str	x17, [x19, #792]
  4038fc:	a94153f3 	ldp	x19, x20, [sp, #16]
  403900:	a8c27bfd 	ldp	x29, x30, [sp], #32
  403904:	d65f03c0 	ret
  403908:	8b000261 	add	x1, x19, x0
  40390c:	394d6021 	ldrb	w1, [x1, #856]
  403910:	34fffde1 	cbz	w1, 4038cc <uw_update_context+0x44>
  403914:	17fffff4 	b	4038e4 <uw_update_context+0x5c>
  403918:	f9018e7f 	str	xzr, [x19, #792]
  40391c:	a94153f3 	ldp	x19, x20, [sp, #16]
  403920:	a8c27bfd 	ldp	x29, x30, [sp], #32
  403924:	d65f03c0 	ret
  403928:	94001dea 	bl	40b0d0 <abort>
  40392c:	d503201f 	nop

0000000000403930 <_Unwind_RaiseException_Phase2>:
  403930:	d11ac3ff 	sub	sp, sp, #0x6b0
  403934:	a9007bfd 	stp	x29, x30, [sp]
  403938:	910003fd 	mov	x29, sp
  40393c:	a90153f3 	stp	x19, x20, [sp, #16]
  403940:	aa0103f3 	mov	x19, x1
  403944:	a9025bf5 	stp	x21, x22, [sp, #32]
  403948:	aa0003f5 	mov	x21, x0
  40394c:	9100c3b6 	add	x22, x29, #0x30
  403950:	aa1603e1 	mov	x1, x22
  403954:	aa1303e0 	mov	x0, x19
  403958:	97fffb7e 	bl	402750 <uw_frame_state_for>
  40395c:	f9418a63 	ldr	x3, [x19, #784]
  403960:	f941a261 	ldr	x1, [x19, #832]
  403964:	f9400ea2 	ldr	x2, [x21, #24]
  403968:	cb41fc61 	sub	x1, x3, x1, lsr #63
  40396c:	eb01005f 	cmp	x2, x1
  403970:	1a9f17f4 	cset	w20, eq  // eq = none
  403974:	531e7694 	lsl	w20, w20, #2
  403978:	35000240 	cbnz	w0, 4039c0 <_Unwind_RaiseException_Phase2+0x90>
  40397c:	f94343a5 	ldr	x5, [x29, #1664]
  403980:	b4000165 	cbz	x5, 4039ac <_Unwind_RaiseException_Phase2+0x7c>
  403984:	f94002a2 	ldr	x2, [x21]
  403988:	aa1303e4 	mov	x4, x19
  40398c:	aa1503e3 	mov	x3, x21
  403990:	321f0281 	orr	w1, w20, #0x2
  403994:	52800020 	mov	w0, #0x1                   	// #1
  403998:	d63f00a0 	blr	x5
  40399c:	71001c1f 	cmp	w0, #0x7
  4039a0:	54000120 	b.eq	4039c4 <_Unwind_RaiseException_Phase2+0x94>  // b.none
  4039a4:	7100201f 	cmp	w0, #0x8
  4039a8:	540000c1 	b.ne	4039c0 <_Unwind_RaiseException_Phase2+0x90>  // b.any
  4039ac:	35000174 	cbnz	w20, 4039d8 <_Unwind_RaiseException_Phase2+0xa8>
  4039b0:	aa1603e1 	mov	x1, x22
  4039b4:	aa1303e0 	mov	x0, x19
  4039b8:	97ffffb4 	bl	403888 <uw_update_context>
  4039bc:	17ffffe5 	b	403950 <_Unwind_RaiseException_Phase2+0x20>
  4039c0:	52800040 	mov	w0, #0x2                   	// #2
  4039c4:	a9407bfd 	ldp	x29, x30, [sp]
  4039c8:	a94153f3 	ldp	x19, x20, [sp, #16]
  4039cc:	a9425bf5 	ldp	x21, x22, [sp, #32]
  4039d0:	911ac3ff 	add	sp, sp, #0x6b0
  4039d4:	d65f03c0 	ret
  4039d8:	94001dbe 	bl	40b0d0 <abort>
  4039dc:	d503201f 	nop

00000000004039e0 <_Unwind_ForcedUnwind_Phase2>:
  4039e0:	d11b03ff 	sub	sp, sp, #0x6c0
  4039e4:	a9007bfd 	stp	x29, x30, [sp]
  4039e8:	910003fd 	mov	x29, sp
  4039ec:	a90153f3 	stp	x19, x20, [sp, #16]
  4039f0:	aa0003f4 	mov	x20, x0
  4039f4:	a9025bf5 	stp	x21, x22, [sp, #32]
  4039f8:	aa0103f5 	mov	x21, x1
  4039fc:	a90363f7 	stp	x23, x24, [sp, #48]
  403a00:	910103b6 	add	x22, x29, #0x40
  403a04:	a9415c18 	ldp	x24, x23, [x0, #16]
  403a08:	14000017 	b	403a64 <_Unwind_ForcedUnwind_Phase2+0x84>
  403a0c:	aa1503e4 	mov	x4, x21
  403a10:	aa1403e3 	mov	x3, x20
  403a14:	52800141 	mov	w1, #0xa                   	// #10
  403a18:	52800020 	mov	w0, #0x1                   	// #1
  403a1c:	d63f0300 	blr	x24
  403a20:	aa1503e4 	mov	x4, x21
  403a24:	aa1403e3 	mov	x3, x20
  403a28:	52800141 	mov	w1, #0xa                   	// #10
  403a2c:	350003e0 	cbnz	w0, 403aa8 <_Unwind_ForcedUnwind_Phase2+0xc8>
  403a30:	f9434ba5 	ldr	x5, [x29, #1680]
  403a34:	52800020 	mov	w0, #0x1                   	// #1
  403a38:	b4000105 	cbz	x5, 403a58 <_Unwind_ForcedUnwind_Phase2+0x78>
  403a3c:	f9400282 	ldr	x2, [x20]
  403a40:	d63f00a0 	blr	x5
  403a44:	2a0003f3 	mov	w19, w0
  403a48:	71001c1f 	cmp	w0, #0x7
  403a4c:	54000300 	b.eq	403aac <_Unwind_ForcedUnwind_Phase2+0xcc>  // b.none
  403a50:	7100201f 	cmp	w0, #0x8
  403a54:	540002a1 	b.ne	403aa8 <_Unwind_ForcedUnwind_Phase2+0xc8>  // b.any
  403a58:	aa1603e1 	mov	x1, x22
  403a5c:	aa1503e0 	mov	x0, x21
  403a60:	97ffff8a 	bl	403888 <uw_update_context>
  403a64:	aa1603e1 	mov	x1, x22
  403a68:	aa1503e0 	mov	x0, x21
  403a6c:	97fffb39 	bl	402750 <uw_frame_state_for>
  403a70:	7100001f 	cmp	w0, #0x0
  403a74:	2a0003f3 	mov	w19, w0
  403a78:	aa1703e5 	mov	x5, x23
  403a7c:	7a451804 	ccmp	w0, #0x5, #0x4, ne  // ne = any
  403a80:	54000141 	b.ne	403aa8 <_Unwind_ForcedUnwind_Phase2+0xc8>  // b.any
  403a84:	7100141f 	cmp	w0, #0x5
  403a88:	f9400282 	ldr	x2, [x20]
  403a8c:	54fffc01 	b.ne	403a0c <_Unwind_ForcedUnwind_Phase2+0x2c>  // b.any
  403a90:	aa1503e4 	mov	x4, x21
  403a94:	aa1403e3 	mov	x3, x20
  403a98:	52800341 	mov	w1, #0x1a                  	// #26
  403a9c:	52800020 	mov	w0, #0x1                   	// #1
  403aa0:	d63f0300 	blr	x24
  403aa4:	34000040 	cbz	w0, 403aac <_Unwind_ForcedUnwind_Phase2+0xcc>
  403aa8:	52800053 	mov	w19, #0x2                   	// #2
  403aac:	2a1303e0 	mov	w0, w19
  403ab0:	a9407bfd 	ldp	x29, x30, [sp]
  403ab4:	a94153f3 	ldp	x19, x20, [sp, #16]
  403ab8:	a9425bf5 	ldp	x21, x22, [sp, #32]
  403abc:	a94363f7 	ldp	x23, x24, [sp, #48]
  403ac0:	911b03ff 	add	sp, sp, #0x6c0
  403ac4:	d65f03c0 	ret

0000000000403ac8 <uw_install_context_1>:
  403ac8:	a9bb7bfd 	stp	x29, x30, [sp, #-80]!
  403acc:	910003fd 	mov	x29, sp
  403ad0:	a9025bf5 	stp	x21, x22, [sp, #32]
  403ad4:	aa0003f6 	mov	x22, x0
  403ad8:	f941a020 	ldr	x0, [x1, #832]
  403adc:	aa0103f5 	mov	x21, x1
  403ae0:	a90153f3 	stp	x19, x20, [sp, #16]
  403ae4:	f9001bf7 	str	x23, [sp, #48]
  403ae8:	b6f00580 	tbz	x0, #62, 403b98 <uw_install_context_1+0xd0>
  403aec:	394ddc21 	ldrb	w1, [x1, #887]
  403af0:	34000541 	cbz	w1, 403b98 <uw_install_context_1+0xd0>
  403af4:	d0000417 	adrp	x23, 485000 <__pthread_keys+0x3578>
  403af8:	d2806b14 	mov	x20, #0x358                 	// #856
  403afc:	912a42f7 	add	x23, x23, #0xa90
  403b00:	d2800013 	mov	x19, #0x0                   	// #0
  403b04:	1400000a 	b	403b2c <uw_install_context_1+0x64>
  403b08:	b40000a0 	cbz	x0, 403b1c <uw_install_context_1+0x54>
  403b0c:	38776a62 	ldrb	w2, [x19, x23]
  403b10:	7100205f 	cmp	w2, #0x8
  403b14:	54000921 	b.ne	403c38 <uw_install_context_1+0x170>  // b.any
  403b18:	f9000001 	str	x1, [x0]
  403b1c:	91000673 	add	x19, x19, #0x1
  403b20:	91000694 	add	x20, x20, #0x1
  403b24:	f101867f 	cmp	x19, #0x61
  403b28:	54000240 	b.eq	403b70 <uw_install_context_1+0xa8>  // b.none
  403b2c:	38746ac2 	ldrb	w2, [x22, x20]
  403b30:	f8737ac0 	ldr	x0, [x22, x19, lsl #3]
  403b34:	f8737aa1 	ldr	x1, [x21, x19, lsl #3]
  403b38:	35000802 	cbnz	w2, 403c38 <uw_install_context_1+0x170>
  403b3c:	38746aa2 	ldrb	w2, [x21, x20]
  403b40:	35fffe42 	cbnz	w2, 403b08 <uw_install_context_1+0x40>
  403b44:	f100003f 	cmp	x1, #0x0
  403b48:	fa401804 	ccmp	x0, #0x0, #0x4, ne  // ne = any
  403b4c:	fa411004 	ccmp	x0, x1, #0x4, ne  // ne = any
  403b50:	54fffe60 	b.eq	403b1c <uw_install_context_1+0x54>  // b.none
  403b54:	38736ae2 	ldrb	w2, [x23, x19]
  403b58:	91000673 	add	x19, x19, #0x1
  403b5c:	91000694 	add	x20, x20, #0x1
  403b60:	97fff1bc 	bl	400250 <.plt+0x10>
  403b64:	f101867f 	cmp	x19, #0x61
  403b68:	54fffe21 	b.ne	403b2c <uw_install_context_1+0x64>  // b.any
  403b6c:	d503201f 	nop
  403b70:	f941a2c0 	ldr	x0, [x22, #832]
  403b74:	b6f002c0 	tbz	x0, #62, 403bcc <uw_install_context_1+0x104>
  403b78:	394ddec0 	ldrb	w0, [x22, #887]
  403b7c:	34000280 	cbz	w0, 403bcc <uw_install_context_1+0x104>
  403b80:	a94153f3 	ldp	x19, x20, [sp, #16]
  403b84:	d2800000 	mov	x0, #0x0                   	// #0
  403b88:	a9425bf5 	ldp	x21, x22, [sp, #32]
  403b8c:	f9401bf7 	ldr	x23, [sp, #48]
  403b90:	a8c57bfd 	ldp	x29, x30, [sp], #80
  403b94:	d65f03c0 	ret
  403b98:	f9407ea1 	ldr	x1, [x21, #248]
  403b9c:	b5fffac1 	cbnz	x1, 403af4 <uw_install_context_1+0x2c>
  403ba0:	d0000402 	adrp	x2, 485000 <__pthread_keys+0x3578>
  403ba4:	f9418aa1 	ldr	x1, [x21, #784]
  403ba8:	396abc42 	ldrb	w2, [x2, #2735]
  403bac:	7100205f 	cmp	w2, #0x8
  403bb0:	54000441 	b.ne	403c38 <uw_install_context_1+0x170>  // b.any
  403bb4:	f90027a1 	str	x1, [x29, #72]
  403bb8:	b6f00040 	tbz	x0, #62, 403bc0 <uw_install_context_1+0xf8>
  403bbc:	390ddebf 	strb	wzr, [x21, #887]
  403bc0:	910123a0 	add	x0, x29, #0x48
  403bc4:	f9007ea0 	str	x0, [x21, #248]
  403bc8:	17ffffcb 	b	403af4 <uw_install_context_1+0x2c>
  403bcc:	f9407ec1 	ldr	x1, [x22, #248]
  403bd0:	d2800000 	mov	x0, #0x0                   	// #0
  403bd4:	b40000c1 	cbz	x1, 403bec <uw_install_context_1+0x124>
  403bd8:	a94153f3 	ldp	x19, x20, [sp, #16]
  403bdc:	a9425bf5 	ldp	x21, x22, [sp, #32]
  403be0:	f9401bf7 	ldr	x23, [sp, #48]
  403be4:	a8c57bfd 	ldp	x29, x30, [sp], #80
  403be8:	d65f03c0 	ret
  403bec:	f941a2a1 	ldr	x1, [x21, #832]
  403bf0:	f9407ea0 	ldr	x0, [x21, #248]
  403bf4:	b6f00061 	tbz	x1, #62, 403c00 <uw_install_context_1+0x138>
  403bf8:	394ddea1 	ldrb	w1, [x21, #887]
  403bfc:	350000c1 	cbnz	w1, 403c14 <uw_install_context_1+0x14c>
  403c00:	d0000401 	adrp	x1, 485000 <__pthread_keys+0x3578>
  403c04:	396abc21 	ldrb	w1, [x1, #2735]
  403c08:	7100203f 	cmp	w1, #0x8
  403c0c:	54000161 	b.ne	403c38 <uw_install_context_1+0x170>  // b.any
  403c10:	f9400000 	ldr	x0, [x0]
  403c14:	f9418ac2 	ldr	x2, [x22, #784]
  403c18:	f941aaa1 	ldr	x1, [x21, #848]
  403c1c:	cb020000 	sub	x0, x0, x2
  403c20:	f9401bf7 	ldr	x23, [sp, #48]
  403c24:	a94153f3 	ldp	x19, x20, [sp, #16]
  403c28:	8b010000 	add	x0, x0, x1
  403c2c:	a9425bf5 	ldp	x21, x22, [sp, #32]
  403c30:	a8c57bfd 	ldp	x29, x30, [sp], #80
  403c34:	d65f03c0 	ret
  403c38:	94001d26 	bl	40b0d0 <abort>
  403c3c:	d503201f 	nop

0000000000403c40 <_Unwind_GetGR>:
  403c40:	7101843f 	cmp	w1, #0x61
  403c44:	5400022c 	b.gt	403c88 <_Unwind_GetGR+0x48>
  403c48:	f941a004 	ldr	x4, [x0, #832]
  403c4c:	93407c23 	sxtw	x3, w1
  403c50:	f8637802 	ldr	x2, [x0, x3, lsl #3]
  403c54:	b6f000c4 	tbz	x4, #62, 403c6c <_Unwind_GetGR+0x2c>
  403c58:	8b030000 	add	x0, x0, x3
  403c5c:	394d6000 	ldrb	w0, [x0, #856]
  403c60:	34000060 	cbz	w0, 403c6c <_Unwind_GetGR+0x2c>
  403c64:	aa0203e0 	mov	x0, x2
  403c68:	d65f03c0 	ret
  403c6c:	d0000400 	adrp	x0, 485000 <__pthread_keys+0x3578>
  403c70:	912a4000 	add	x0, x0, #0xa90
  403c74:	3861c800 	ldrb	w0, [x0, w1, sxtw]
  403c78:	7100201f 	cmp	w0, #0x8
  403c7c:	54000061 	b.ne	403c88 <_Unwind_GetGR+0x48>  // b.any
  403c80:	f9400040 	ldr	x0, [x2]
  403c84:	d65f03c0 	ret
  403c88:	a9bf7bfd 	stp	x29, x30, [sp, #-16]!
  403c8c:	910003fd 	mov	x29, sp
  403c90:	94001d10 	bl	40b0d0 <abort>
  403c94:	d503201f 	nop

0000000000403c98 <_Unwind_GetCFA>:
  403c98:	f9418800 	ldr	x0, [x0, #784]
  403c9c:	d65f03c0 	ret

0000000000403ca0 <_Unwind_SetGR>:
  403ca0:	7101843f 	cmp	w1, #0x61
  403ca4:	5400022c 	b.gt	403ce8 <_Unwind_SetGR+0x48>
  403ca8:	f941a003 	ldr	x3, [x0, #832]
  403cac:	93407c24 	sxtw	x4, w1
  403cb0:	b6f000c3 	tbz	x3, #62, 403cc8 <_Unwind_SetGR+0x28>
  403cb4:	8b040003 	add	x3, x0, x4
  403cb8:	394d6063 	ldrb	w3, [x3, #856]
  403cbc:	34000063 	cbz	w3, 403cc8 <_Unwind_SetGR+0x28>
  403cc0:	f8247802 	str	x2, [x0, x4, lsl #3]
  403cc4:	d65f03c0 	ret
  403cc8:	d0000403 	adrp	x3, 485000 <__pthread_keys+0x3578>
  403ccc:	912a4063 	add	x3, x3, #0xa90
  403cd0:	f8647800 	ldr	x0, [x0, x4, lsl #3]
  403cd4:	3861c861 	ldrb	w1, [x3, w1, sxtw]
  403cd8:	7100203f 	cmp	w1, #0x8
  403cdc:	54000061 	b.ne	403ce8 <_Unwind_SetGR+0x48>  // b.any
  403ce0:	f9000002 	str	x2, [x0]
  403ce4:	d65f03c0 	ret
  403ce8:	a9bf7bfd 	stp	x29, x30, [sp, #-16]!
  403cec:	910003fd 	mov	x29, sp
  403cf0:	94001cf8 	bl	40b0d0 <abort>
  403cf4:	d503201f 	nop

0000000000403cf8 <_Unwind_GetIP>:
  403cf8:	f9418c00 	ldr	x0, [x0, #792]
  403cfc:	d65f03c0 	ret

0000000000403d00 <_Unwind_GetIPInfo>:
  403d00:	f941a002 	ldr	x2, [x0, #832]
  403d04:	f9418c00 	ldr	x0, [x0, #792]
  403d08:	d37ffc42 	lsr	x2, x2, #63
  403d0c:	b9000022 	str	w2, [x1]
  403d10:	d65f03c0 	ret
  403d14:	d503201f 	nop

0000000000403d18 <_Unwind_SetIP>:
  403d18:	f9018c01 	str	x1, [x0, #792]
  403d1c:	d65f03c0 	ret

0000000000403d20 <_Unwind_GetLanguageSpecificData>:
  403d20:	f9419000 	ldr	x0, [x0, #800]
  403d24:	d65f03c0 	ret

0000000000403d28 <_Unwind_GetRegionStart>:
  403d28:	f9419c00 	ldr	x0, [x0, #824]
  403d2c:	d65f03c0 	ret

0000000000403d30 <_Unwind_FindEnclosingFunction>:
  403d30:	a9bd7bfd 	stp	x29, x30, [sp, #-48]!
  403d34:	d1000400 	sub	x0, x0, #0x1
  403d38:	910003fd 	mov	x29, sp
  403d3c:	910063a1 	add	x1, x29, #0x18
  403d40:	94000882 	bl	405f48 <_Unwind_Find_FDE>
  403d44:	f100001f 	cmp	x0, #0x0
  403d48:	f94017a1 	ldr	x1, [x29, #40]
  403d4c:	a8c37bfd 	ldp	x29, x30, [sp], #48
  403d50:	9a9f1020 	csel	x0, x1, xzr, ne  // ne = any
  403d54:	d65f03c0 	ret

0000000000403d58 <_Unwind_GetDataRelBase>:
  403d58:	f9419800 	ldr	x0, [x0, #816]
  403d5c:	d65f03c0 	ret

0000000000403d60 <_Unwind_GetTextRelBase>:
  403d60:	f9419400 	ldr	x0, [x0, #808]
  403d64:	d65f03c0 	ret

0000000000403d68 <__frame_state_for>:
  403d68:	d129c3ff 	sub	sp, sp, #0xa70
  403d6c:	d2807802 	mov	x2, #0x3c0                 	// #960
  403d70:	a9007bfd 	stp	x29, x30, [sp]
  403d74:	910003fd 	mov	x29, sp
  403d78:	9100c3a3 	add	x3, x29, #0x30
  403d7c:	a90153f3 	stp	x19, x20, [sp, #16]
  403d80:	aa0103f4 	mov	x20, x1
  403d84:	f90013f5 	str	x21, [sp, #32]
  403d88:	52800001 	mov	w1, #0x0                   	// #0
  403d8c:	aa0003f5 	mov	x21, x0
  403d90:	aa0303e0 	mov	x0, x3
  403d94:	97fff133 	bl	400260 <.plt+0x20>
  403d98:	aa0003e3 	mov	x3, x0
  403d9c:	910fc3b3 	add	x19, x29, #0x3f0
  403da0:	d2e80000 	mov	x0, #0x4000000000000000    	// #4611686018427387904
  403da4:	910006b5 	add	x21, x21, #0x1
  403da8:	f901bba0 	str	x0, [x29, #880]
  403dac:	aa1303e1 	mov	x1, x19
  403db0:	f901a7b5 	str	x21, [x29, #840]
  403db4:	aa0303e0 	mov	x0, x3
  403db8:	97fffa66 	bl	402750 <uw_frame_state_for>
  403dbc:	35000560 	cbnz	w0, 403e68 <__frame_state_for+0x100>
  403dc0:	b94a33a0 	ldr	w0, [x29, #2608]
  403dc4:	7100081f 	cmp	w0, #0x2
  403dc8:	54000500 	b.eq	403e68 <__frame_state_for+0x100>  // b.none
  403dcc:	aa1303e1 	mov	x1, x19
  403dd0:	910cd283 	add	x3, x20, #0x334
  403dd4:	91008284 	add	x4, x20, #0x20
  403dd8:	91188265 	add	x5, x19, #0x620
  403ddc:	14000007 	b	403df8 <__frame_state_for+0x90>
  403de0:	f900009f 	str	xzr, [x4]
  403de4:	91004021 	add	x1, x1, #0x10
  403de8:	91000463 	add	x3, x3, #0x1
  403dec:	91002084 	add	x4, x4, #0x8
  403df0:	eb05003f 	cmp	x1, x5
  403df4:	540001c0 	b.eq	403e2c <__frame_state_for+0xc4>  // b.none
  403df8:	39402022 	ldrb	w2, [x1, #8]
  403dfc:	39000062 	strb	w2, [x3]
  403e00:	7100045f 	cmp	w2, #0x1
  403e04:	54000060 	b.eq	403e10 <__frame_state_for+0xa8>  // b.none
  403e08:	7100085f 	cmp	w2, #0x2
  403e0c:	54fffea1 	b.ne	403de0 <__frame_state_for+0x78>  // b.any
  403e10:	f9400022 	ldr	x2, [x1]
  403e14:	91004021 	add	x1, x1, #0x10
  403e18:	f9000082 	str	x2, [x4]
  403e1c:	91000463 	add	x3, x3, #0x1
  403e20:	91002084 	add	x4, x4, #0x8
  403e24:	eb05003f 	cmp	x1, x5
  403e28:	54fffe81 	b.ne	403df8 <__frame_state_for+0x90>  // b.any
  403e2c:	f941c3a2 	ldr	x2, [x29, #896]
  403e30:	f9450fa4 	ldr	x4, [x29, #2584]
  403e34:	f94513a1 	ldr	x1, [x29, #2592]
  403e38:	f9452fa0 	ldr	x0, [x29, #2648]
  403e3c:	f94537a3 	ldr	x3, [x29, #2664]
  403e40:	a9009283 	stp	x3, x4, [x20, #8]
  403e44:	f9000e82 	str	x2, [x20, #24]
  403e48:	79066281 	strh	w1, [x20, #816]
  403e4c:	79066680 	strh	w0, [x20, #818]
  403e50:	aa1403e0 	mov	x0, x20
  403e54:	a9407bfd 	ldp	x29, x30, [sp]
  403e58:	a94153f3 	ldp	x19, x20, [sp, #16]
  403e5c:	f94013f5 	ldr	x21, [sp, #32]
  403e60:	9129c3ff 	add	sp, sp, #0xa70
  403e64:	d65f03c0 	ret
  403e68:	a9407bfd 	ldp	x29, x30, [sp]
  403e6c:	d2800000 	mov	x0, #0x0                   	// #0
  403e70:	a94153f3 	ldp	x19, x20, [sp, #16]
  403e74:	f94013f5 	ldr	x21, [sp, #32]
  403e78:	9129c3ff 	add	sp, sp, #0xa70
  403e7c:	d65f03c0 	ret

0000000000403e80 <_Unwind_DebugHook>:
  403e80:	d65f03c0 	ret
  403e84:	d503201f 	nop

0000000000403e88 <_Unwind_RaiseException>:
  403e88:	d13b03ff 	sub	sp, sp, #0xec0
  403e8c:	a9007bfd 	stp	x29, x30, [sp]
  403e90:	910003fd 	mov	x29, sp
  403e94:	a9045bf5 	stp	x21, x22, [sp, #64]
  403e98:	910303b6 	add	x22, x29, #0xc0
  403e9c:	a90107e0 	stp	x0, x1, [sp, #16]
  403ea0:	913b03a1 	add	x1, x29, #0xec0
  403ea4:	a9020fe2 	stp	x2, x3, [sp, #32]
  403ea8:	aa1e03e2 	mov	x2, x30
  403eac:	a90353f3 	stp	x19, x20, [sp, #48]
  403eb0:	aa0003f4 	mov	x20, x0
  403eb4:	a90563f7 	stp	x23, x24, [sp, #80]
  403eb8:	aa1603e0 	mov	x0, x22
  403ebc:	a9066bf9 	stp	x25, x26, [sp, #96]
  403ec0:	911203b3 	add	x19, x29, #0x480
  403ec4:	a90773fb 	stp	x27, x28, [sp, #112]
  403ec8:	912103b5 	add	x21, x29, #0x840
  403ecc:	6d0827e8 	stp	d8, d9, [sp, #128]
  403ed0:	6d092fea 	stp	d10, d11, [sp, #144]
  403ed4:	6d0a37ec 	stp	d12, d13, [sp, #160]
  403ed8:	6d0b3fee 	stp	d14, d15, [sp, #176]
  403edc:	97fffde9 	bl	403680 <uw_init_context_1>
  403ee0:	d2807802 	mov	x2, #0x3c0                 	// #960
  403ee4:	aa1603e1 	mov	x1, x22
  403ee8:	aa1303e0 	mov	x0, x19
  403eec:	97fff0d9 	bl	400250 <.plt+0x10>
  403ef0:	1400000d 	b	403f24 <_Unwind_RaiseException+0x9c>
  403ef4:	350004e2 	cbnz	w2, 403f90 <_Unwind_RaiseException+0x108>
  403ef8:	f9474ba5 	ldr	x5, [x29, #3728]
  403efc:	b40000e5 	cbz	x5, 403f18 <_Unwind_RaiseException+0x90>
  403f00:	f9400282 	ldr	x2, [x20]
  403f04:	d63f00a0 	blr	x5
  403f08:	7100181f 	cmp	w0, #0x6
  403f0c:	54000460 	b.eq	403f98 <_Unwind_RaiseException+0x110>  // b.none
  403f10:	7100201f 	cmp	w0, #0x8
  403f14:	540003e1 	b.ne	403f90 <_Unwind_RaiseException+0x108>  // b.any
  403f18:	aa1503e1 	mov	x1, x21
  403f1c:	aa1303e0 	mov	x0, x19
  403f20:	97fffe5a 	bl	403888 <uw_update_context>
  403f24:	aa1503e1 	mov	x1, x21
  403f28:	aa1303e0 	mov	x0, x19
  403f2c:	97fffa09 	bl	402750 <uw_frame_state_for>
  403f30:	2a0003e2 	mov	w2, w0
  403f34:	52800021 	mov	w1, #0x1                   	// #1
  403f38:	aa1303e4 	mov	x4, x19
  403f3c:	aa1403e3 	mov	x3, x20
  403f40:	2a0103e0 	mov	w0, w1
  403f44:	7100145f 	cmp	w2, #0x5
  403f48:	54fffd61 	b.ne	403ef4 <_Unwind_RaiseException+0x6c>  // b.any
  403f4c:	d2800004 	mov	x4, #0x0                   	// #0
  403f50:	2a0203e0 	mov	w0, w2
  403f54:	a9407bfd 	ldp	x29, x30, [sp]
  403f58:	a94107e0 	ldp	x0, x1, [sp, #16]
  403f5c:	a9420fe2 	ldp	x2, x3, [sp, #32]
  403f60:	a94353f3 	ldp	x19, x20, [sp, #48]
  403f64:	a9445bf5 	ldp	x21, x22, [sp, #64]
  403f68:	a94563f7 	ldp	x23, x24, [sp, #80]
  403f6c:	a9466bf9 	ldp	x25, x26, [sp, #96]
  403f70:	a94773fb 	ldp	x27, x28, [sp, #112]
  403f74:	6d4827e8 	ldp	d8, d9, [sp, #128]
  403f78:	6d492fea 	ldp	d10, d11, [sp, #144]
  403f7c:	6d4a37ec 	ldp	d12, d13, [sp, #160]
  403f80:	6d4b3fee 	ldp	d14, d15, [sp, #176]
  403f84:	913b03ff 	add	sp, sp, #0xec0
  403f88:	8b2463ff 	add	sp, sp, x4
  403f8c:	d65f03c0 	ret
  403f90:	52800062 	mov	w2, #0x3                   	// #3
  403f94:	17ffffee 	b	403f4c <_Unwind_RaiseException+0xc4>
  403f98:	f943cba4 	ldr	x4, [x29, #1936]
  403f9c:	d2807802 	mov	x2, #0x3c0                 	// #960
  403fa0:	f943e3a3 	ldr	x3, [x29, #1984]
  403fa4:	aa1603e1 	mov	x1, x22
  403fa8:	aa1303e0 	mov	x0, x19
  403fac:	cb43fc83 	sub	x3, x4, x3, lsr #63
  403fb0:	a9010e9f 	stp	xzr, x3, [x20, #16]
  403fb4:	97fff0a7 	bl	400250 <.plt+0x10>
  403fb8:	aa1303e1 	mov	x1, x19
  403fbc:	aa1403e0 	mov	x0, x20
  403fc0:	97fffe5c 	bl	403930 <_Unwind_RaiseException_Phase2>
  403fc4:	2a0003e2 	mov	w2, w0
  403fc8:	71001c1f 	cmp	w0, #0x7
  403fcc:	54fffc01 	b.ne	403f4c <_Unwind_RaiseException+0xc4>  // b.any
  403fd0:	aa1303e1 	mov	x1, x19
  403fd4:	aa1603e0 	mov	x0, x22
  403fd8:	97fffebc 	bl	403ac8 <uw_install_context_1>
  403fdc:	aa0003e4 	mov	x4, x0
  403fe0:	f94203a1 	ldr	x1, [x29, #1024]
  403fe4:	f943cfa3 	ldr	x3, [x29, #1944]
  403fe8:	f941ebb0 	ldr	x16, [x29, #976]
  403fec:	f243003f 	tst	x1, #0x2000000000000000
  403ff0:	f943cba0 	ldr	x0, [x29, #1936]
  403ff4:	aa0303f1 	mov	x17, x3
  403ff8:	d503211f 	pacia1716
  403ffc:	9a831223 	csel	x3, x17, x3, ne  // ne = any
  404000:	aa0303e1 	mov	x1, x3
  404004:	97ffff9f 	bl	403e80 <_Unwind_DebugHook>
  404008:	f90007a3 	str	x3, [x29, #8]
  40400c:	17ffffd1 	b	403f50 <_Unwind_RaiseException+0xc8>

0000000000404010 <_Unwind_ForcedUnwind>:
  404010:	d12103ff 	sub	sp, sp, #0x840
  404014:	a9007bfd 	stp	x29, x30, [sp]
  404018:	910003fd 	mov	x29, sp
  40401c:	a90353f3 	stp	x19, x20, [sp, #48]
  404020:	aa0003f3 	mov	x19, x0
  404024:	910303b4 	add	x20, x29, #0xc0
  404028:	a90107e0 	stp	x0, x1, [sp, #16]
  40402c:	a9020fe2 	stp	x2, x3, [sp, #32]
  404030:	aa1403e0 	mov	x0, x20
  404034:	a9045bf5 	stp	x21, x22, [sp, #64]
  404038:	aa0203f6 	mov	x22, x2
  40403c:	a90563f7 	stp	x23, x24, [sp, #80]
  404040:	aa1e03e2 	mov	x2, x30
  404044:	a9066bf9 	stp	x25, x26, [sp, #96]
  404048:	aa0103f7 	mov	x23, x1
  40404c:	a90773fb 	stp	x27, x28, [sp, #112]
  404050:	912103a1 	add	x1, x29, #0x840
  404054:	6d0827e8 	stp	d8, d9, [sp, #128]
  404058:	911203b5 	add	x21, x29, #0x480
  40405c:	6d092fea 	stp	d10, d11, [sp, #144]
  404060:	6d0a37ec 	stp	d12, d13, [sp, #160]
  404064:	6d0b3fee 	stp	d14, d15, [sp, #176]
  404068:	97fffd86 	bl	403680 <uw_init_context_1>
  40406c:	d2807802 	mov	x2, #0x3c0                 	// #960
  404070:	aa1403e1 	mov	x1, x20
  404074:	aa1503e0 	mov	x0, x21
  404078:	97fff076 	bl	400250 <.plt+0x10>
  40407c:	a9015a77 	stp	x23, x22, [x19, #16]
  404080:	aa1503e1 	mov	x1, x21
  404084:	aa1303e0 	mov	x0, x19
  404088:	97fffe56 	bl	4039e0 <_Unwind_ForcedUnwind_Phase2>
  40408c:	71001c1f 	cmp	w0, #0x7
  404090:	d2800004 	mov	x4, #0x0                   	// #0
  404094:	54000200 	b.eq	4040d4 <_Unwind_ForcedUnwind+0xc4>  // b.none
  404098:	a9407bfd 	ldp	x29, x30, [sp]
  40409c:	a94107e0 	ldp	x0, x1, [sp, #16]
  4040a0:	a9420fe2 	ldp	x2, x3, [sp, #32]
  4040a4:	a94353f3 	ldp	x19, x20, [sp, #48]
  4040a8:	a9445bf5 	ldp	x21, x22, [sp, #64]
  4040ac:	a94563f7 	ldp	x23, x24, [sp, #80]
  4040b0:	a9466bf9 	ldp	x25, x26, [sp, #96]
  4040b4:	a94773fb 	ldp	x27, x28, [sp, #112]
  4040b8:	6d4827e8 	ldp	d8, d9, [sp, #128]
  4040bc:	6d492fea 	ldp	d10, d11, [sp, #144]
  4040c0:	6d4a37ec 	ldp	d12, d13, [sp, #160]
  4040c4:	6d4b3fee 	ldp	d14, d15, [sp, #176]
  4040c8:	912103ff 	add	sp, sp, #0x840
  4040cc:	8b2463ff 	add	sp, sp, x4
  4040d0:	d65f03c0 	ret
  4040d4:	aa1503e1 	mov	x1, x21
  4040d8:	aa1403e0 	mov	x0, x20
  4040dc:	97fffe7b 	bl	403ac8 <uw_install_context_1>
  4040e0:	aa0003e4 	mov	x4, x0
  4040e4:	f94203a0 	ldr	x0, [x29, #1024]
  4040e8:	f943cfa2 	ldr	x2, [x29, #1944]
  4040ec:	b6e800a0 	tbz	x0, #61, 404100 <_Unwind_ForcedUnwind+0xf0>
  4040f0:	aa0203f1 	mov	x17, x2
  4040f4:	f941ebb0 	ldr	x16, [x29, #976]
  4040f8:	d503211f 	pacia1716
  4040fc:	aa1103e2 	mov	x2, x17
  404100:	f943cba0 	ldr	x0, [x29, #1936]
  404104:	aa0203e1 	mov	x1, x2
  404108:	97ffff5e 	bl	403e80 <_Unwind_DebugHook>
  40410c:	f90007a2 	str	x2, [x29, #8]
  404110:	17ffffe2 	b	404098 <_Unwind_ForcedUnwind+0x88>
  404114:	d503201f 	nop

0000000000404118 <_Unwind_Resume>:
  404118:	d12103ff 	sub	sp, sp, #0x840
  40411c:	a9007bfd 	stp	x29, x30, [sp]
  404120:	910003fd 	mov	x29, sp
  404124:	a90353f3 	stp	x19, x20, [sp, #48]
  404128:	910303b3 	add	x19, x29, #0xc0
  40412c:	a9045bf5 	stp	x21, x22, [sp, #64]
  404130:	aa0003f5 	mov	x21, x0
  404134:	a90107e0 	stp	x0, x1, [sp, #16]
  404138:	911203b4 	add	x20, x29, #0x480
  40413c:	a9020fe2 	stp	x2, x3, [sp, #32]
  404140:	912103a1 	add	x1, x29, #0x840
  404144:	aa1e03e2 	mov	x2, x30
  404148:	a90563f7 	stp	x23, x24, [sp, #80]
  40414c:	a9066bf9 	stp	x25, x26, [sp, #96]
  404150:	aa1303e0 	mov	x0, x19
  404154:	a90773fb 	stp	x27, x28, [sp, #112]
  404158:	6d0827e8 	stp	d8, d9, [sp, #128]
  40415c:	6d092fea 	stp	d10, d11, [sp, #144]
  404160:	6d0a37ec 	stp	d12, d13, [sp, #160]
  404164:	6d0b3fee 	stp	d14, d15, [sp, #176]
  404168:	97fffd46 	bl	403680 <uw_init_context_1>
  40416c:	aa1303e1 	mov	x1, x19
  404170:	d2807802 	mov	x2, #0x3c0                 	// #960
  404174:	aa1403e0 	mov	x0, x20
  404178:	97fff036 	bl	400250 <.plt+0x10>
  40417c:	f9400aa0 	ldr	x0, [x21, #16]
  404180:	aa1403e1 	mov	x1, x20
  404184:	b50000c0 	cbnz	x0, 40419c <_Unwind_Resume+0x84>
  404188:	aa1503e0 	mov	x0, x21
  40418c:	97fffde9 	bl	403930 <_Unwind_RaiseException_Phase2>
  404190:	71001c1f 	cmp	w0, #0x7
  404194:	540000a0 	b.eq	4041a8 <_Unwind_Resume+0x90>  // b.none
  404198:	94001bce 	bl	40b0d0 <abort>
  40419c:	aa1503e0 	mov	x0, x21
  4041a0:	97fffe10 	bl	4039e0 <_Unwind_ForcedUnwind_Phase2>
  4041a4:	17fffffb 	b	404190 <_Unwind_Resume+0x78>
  4041a8:	aa1403e1 	mov	x1, x20
  4041ac:	aa1303e0 	mov	x0, x19
  4041b0:	97fffe46 	bl	403ac8 <uw_install_context_1>
  4041b4:	aa0003e4 	mov	x4, x0
  4041b8:	f94203a0 	ldr	x0, [x29, #1024]
  4041bc:	f943cfa2 	ldr	x2, [x29, #1944]
  4041c0:	b6e800a0 	tbz	x0, #61, 4041d4 <_Unwind_Resume+0xbc>
  4041c4:	aa0203f1 	mov	x17, x2
  4041c8:	f941ebb0 	ldr	x16, [x29, #976]
  4041cc:	d503211f 	pacia1716
  4041d0:	aa1103e2 	mov	x2, x17
  4041d4:	f943cba0 	ldr	x0, [x29, #1936]
  4041d8:	aa0203e1 	mov	x1, x2
  4041dc:	97ffff29 	bl	403e80 <_Unwind_DebugHook>
  4041e0:	f90007a2 	str	x2, [x29, #8]
  4041e4:	a9407bfd 	ldp	x29, x30, [sp]
  4041e8:	a94107e0 	ldp	x0, x1, [sp, #16]
  4041ec:	a9420fe2 	ldp	x2, x3, [sp, #32]
  4041f0:	a94353f3 	ldp	x19, x20, [sp, #48]
  4041f4:	a9445bf5 	ldp	x21, x22, [sp, #64]
  4041f8:	a94563f7 	ldp	x23, x24, [sp, #80]
  4041fc:	a9466bf9 	ldp	x25, x26, [sp, #96]
  404200:	a94773fb 	ldp	x27, x28, [sp, #112]
  404204:	6d4827e8 	ldp	d8, d9, [sp, #128]
  404208:	6d492fea 	ldp	d10, d11, [sp, #144]
  40420c:	6d4a37ec 	ldp	d12, d13, [sp, #160]
  404210:	6d4b3fee 	ldp	d14, d15, [sp, #176]
  404214:	912103ff 	add	sp, sp, #0x840
  404218:	8b2463ff 	add	sp, sp, x4
  40421c:	d65f03c0 	ret

0000000000404220 <_Unwind_Resume_or_Rethrow>:
  404220:	d12103ff 	sub	sp, sp, #0x840
  404224:	a9007bfd 	stp	x29, x30, [sp]
  404228:	910003fd 	mov	x29, sp
  40422c:	a90107e0 	stp	x0, x1, [sp, #16]
  404230:	f9400801 	ldr	x1, [x0, #16]
  404234:	a9020fe2 	stp	x2, x3, [sp, #32]
  404238:	a90353f3 	stp	x19, x20, [sp, #48]
  40423c:	aa0003f3 	mov	x19, x0
  404240:	a9045bf5 	stp	x21, x22, [sp, #64]
  404244:	a90563f7 	stp	x23, x24, [sp, #80]
  404248:	a9066bf9 	stp	x25, x26, [sp, #96]
  40424c:	a90773fb 	stp	x27, x28, [sp, #112]
  404250:	6d0827e8 	stp	d8, d9, [sp, #128]
  404254:	6d092fea 	stp	d10, d11, [sp, #144]
  404258:	6d0a37ec 	stp	d12, d13, [sp, #160]
  40425c:	6d0b3fee 	stp	d14, d15, [sp, #176]
  404260:	b5000241 	cbnz	x1, 4042a8 <_Unwind_Resume_or_Rethrow+0x88>
  404264:	97ffff09 	bl	403e88 <_Unwind_RaiseException>
  404268:	d2800004 	mov	x4, #0x0                   	// #0
  40426c:	a9407bfd 	ldp	x29, x30, [sp]
  404270:	a94107e0 	ldp	x0, x1, [sp, #16]
  404274:	a9420fe2 	ldp	x2, x3, [sp, #32]
  404278:	a94353f3 	ldp	x19, x20, [sp, #48]
  40427c:	a9445bf5 	ldp	x21, x22, [sp, #64]
  404280:	a94563f7 	ldp	x23, x24, [sp, #80]
  404284:	a9466bf9 	ldp	x25, x26, [sp, #96]
  404288:	a94773fb 	ldp	x27, x28, [sp, #112]
  40428c:	6d4827e8 	ldp	d8, d9, [sp, #128]
  404290:	6d492fea 	ldp	d10, d11, [sp, #144]
  404294:	6d4a37ec 	ldp	d12, d13, [sp, #160]
  404298:	6d4b3fee 	ldp	d14, d15, [sp, #176]
  40429c:	912103ff 	add	sp, sp, #0x840
  4042a0:	8b2463ff 	add	sp, sp, x4
  4042a4:	d65f03c0 	ret
  4042a8:	910303b4 	add	x20, x29, #0xc0
  4042ac:	aa1e03e2 	mov	x2, x30
  4042b0:	912103a1 	add	x1, x29, #0x840
  4042b4:	aa1403e0 	mov	x0, x20
  4042b8:	97fffcf2 	bl	403680 <uw_init_context_1>
  4042bc:	911203b5 	add	x21, x29, #0x480
  4042c0:	d2807802 	mov	x2, #0x3c0                 	// #960
  4042c4:	aa1403e1 	mov	x1, x20
  4042c8:	aa1503e0 	mov	x0, x21
  4042cc:	97ffefe1 	bl	400250 <.plt+0x10>
  4042d0:	aa1503e1 	mov	x1, x21
  4042d4:	aa1303e0 	mov	x0, x19
  4042d8:	97fffdc2 	bl	4039e0 <_Unwind_ForcedUnwind_Phase2>
  4042dc:	71001c1f 	cmp	w0, #0x7
  4042e0:	54000040 	b.eq	4042e8 <_Unwind_Resume_or_Rethrow+0xc8>  // b.none
  4042e4:	94001b7b 	bl	40b0d0 <abort>
  4042e8:	aa1503e1 	mov	x1, x21
  4042ec:	aa1403e0 	mov	x0, x20
  4042f0:	97fffdf6 	bl	403ac8 <uw_install_context_1>
  4042f4:	aa0003e4 	mov	x4, x0
  4042f8:	f94203a0 	ldr	x0, [x29, #1024]
  4042fc:	f943cfa2 	ldr	x2, [x29, #1944]
  404300:	b6e800a0 	tbz	x0, #61, 404314 <_Unwind_Resume_or_Rethrow+0xf4>
  404304:	aa0203f1 	mov	x17, x2
  404308:	f941ebb0 	ldr	x16, [x29, #976]
  40430c:	d503211f 	pacia1716
  404310:	aa1103e2 	mov	x2, x17
  404314:	f943cba0 	ldr	x0, [x29, #1936]
  404318:	aa0203e1 	mov	x1, x2
  40431c:	97fffed9 	bl	403e80 <_Unwind_DebugHook>
  404320:	f90007a2 	str	x2, [x29, #8]
  404324:	17ffffd2 	b	40426c <_Unwind_Resume_or_Rethrow+0x4c>

0000000000404328 <_Unwind_DeleteException>:
  404328:	f9400402 	ldr	x2, [x0, #8]
  40432c:	b4000082 	cbz	x2, 40433c <_Unwind_DeleteException+0x14>
  404330:	aa0003e1 	mov	x1, x0
  404334:	52800020 	mov	w0, #0x1                   	// #1
  404338:	d61f0040 	br	x2
  40433c:	d65f03c0 	ret

0000000000404340 <_Unwind_Backtrace>:
  404340:	d12b83ff 	sub	sp, sp, #0xae0
  404344:	aa1e03e2 	mov	x2, x30
  404348:	a9007bfd 	stp	x29, x30, [sp]
  40434c:	910003fd 	mov	x29, sp
  404350:	a90153f3 	stp	x19, x20, [sp, #16]
  404354:	910283b4 	add	x20, x29, #0xa0
  404358:	a9025bf5 	stp	x21, x22, [sp, #32]
  40435c:	aa0103f6 	mov	x22, x1
  404360:	a90363f7 	stp	x23, x24, [sp, #48]
  404364:	911183b5 	add	x21, x29, #0x460
  404368:	aa0003f7 	mov	x23, x0
  40436c:	a9046bf9 	stp	x25, x26, [sp, #64]
  404370:	a90573fb 	stp	x27, x28, [sp, #80]
  404374:	912b83a1 	add	x1, x29, #0xae0
  404378:	6d0627e8 	stp	d8, d9, [sp, #96]
  40437c:	aa1403e0 	mov	x0, x20
  404380:	6d072fea 	stp	d10, d11, [sp, #112]
  404384:	6d0837ec 	stp	d12, d13, [sp, #128]
  404388:	6d093fee 	stp	d14, d15, [sp, #144]
  40438c:	97fffcbd 	bl	403680 <uw_init_context_1>
  404390:	14000009 	b	4043b4 <_Unwind_Backtrace+0x74>
  404394:	aa1403e0 	mov	x0, x20
  404398:	d63f02e0 	blr	x23
  40439c:	350001c0 	cbnz	w0, 4043d4 <_Unwind_Backtrace+0x94>
  4043a0:	7100167f 	cmp	w19, #0x5
  4043a4:	540001a0 	b.eq	4043d8 <_Unwind_Backtrace+0x98>  // b.none
  4043a8:	aa1503e1 	mov	x1, x21
  4043ac:	aa1403e0 	mov	x0, x20
  4043b0:	97fffd36 	bl	403888 <uw_update_context>
  4043b4:	aa1503e1 	mov	x1, x21
  4043b8:	aa1403e0 	mov	x0, x20
  4043bc:	97fff8e5 	bl	402750 <uw_frame_state_for>
  4043c0:	7100001f 	cmp	w0, #0x0
  4043c4:	2a0003f3 	mov	w19, w0
  4043c8:	aa1603e1 	mov	x1, x22
  4043cc:	7a451804 	ccmp	w0, #0x5, #0x4, ne  // ne = any
  4043d0:	54fffe20 	b.eq	404394 <_Unwind_Backtrace+0x54>  // b.none
  4043d4:	52800073 	mov	w19, #0x3                   	// #3
  4043d8:	2a1303e0 	mov	w0, w19
  4043dc:	a9407bfd 	ldp	x29, x30, [sp]
  4043e0:	a94153f3 	ldp	x19, x20, [sp, #16]
  4043e4:	a9425bf5 	ldp	x21, x22, [sp, #32]
  4043e8:	a94363f7 	ldp	x23, x24, [sp, #48]
  4043ec:	a9446bf9 	ldp	x25, x26, [sp, #64]
  4043f0:	a94573fb 	ldp	x27, x28, [sp, #80]
  4043f4:	6d4627e8 	ldp	d8, d9, [sp, #96]
  4043f8:	6d472fea 	ldp	d10, d11, [sp, #112]
  4043fc:	6d4837ec 	ldp	d12, d13, [sp, #128]
  404400:	6d493fee 	ldp	d14, d15, [sp, #144]
  404404:	912b83ff 	add	sp, sp, #0xae0
  404408:	d65f03c0 	ret
  40440c:	00000000 	.inst	0x00000000 ; undefined

0000000000404410 <fde_unencoded_compare>:
  404410:	f9400423 	ldr	x3, [x1, #8]
  404414:	f9400441 	ldr	x1, [x2, #8]
  404418:	52800022 	mov	w2, #0x1                   	// #1
  40441c:	eb01007f 	cmp	x3, x1
  404420:	5a9f23e0 	csetm	w0, cc  // cc = lo, ul, last
  404424:	1a829000 	csel	w0, w0, w2, ls  // ls = plast
  404428:	d65f03c0 	ret
  40442c:	d503201f 	nop

0000000000404430 <frame_downheap>:
  404430:	a9b97bfd 	stp	x29, x30, [sp, #-112]!
  404434:	910003fd 	mov	x29, sp
  404438:	f9000ff4 	str	x20, [sp, #24]
  40443c:	531f7874 	lsl	w20, w3, #1
  404440:	f90017f6 	str	x22, [sp, #40]
  404444:	11000696 	add	w22, w20, #0x1
  404448:	6b0402df 	cmp	w22, w4
  40444c:	5400074a 	b.ge	404534 <frame_downheap+0x104>  // b.tcont
  404450:	f9000bb3 	str	x19, [x29, #16]
  404454:	aa0203f3 	mov	x19, x2
  404458:	f90013b5 	str	x21, [x29, #32]
  40445c:	a90363b7 	stp	x23, x24, [x29, #48]
  404460:	2a0303f7 	mov	w23, w3
  404464:	a9046bb9 	stp	x25, x26, [x29, #64]
  404468:	2a0403f8 	mov	w24, w4
  40446c:	a90573bb 	stp	x27, x28, [x29, #80]
  404470:	aa0003f9 	mov	x25, x0
  404474:	aa0103fa 	mov	x26, x1
  404478:	14000011 	b	4044bc <frame_downheap+0x8c>
  40447c:	f87b7a62 	ldr	x2, [x19, x27, lsl #3]
  404480:	2a1603f4 	mov	w20, w22
  404484:	93407efb 	sxtw	x27, w23
  404488:	2a1403f7 	mov	w23, w20
  40448c:	531f7a94 	lsl	w20, w20, #1
  404490:	aa1903e0 	mov	x0, x25
  404494:	11000696 	add	w22, w20, #0x1
  404498:	f87b7a61 	ldr	x1, [x19, x27, lsl #3]
  40449c:	d63f0340 	blr	x26
  4044a0:	36f80400 	tbz	w0, #31, 404520 <frame_downheap+0xf0>
  4044a4:	f94002a1 	ldr	x1, [x21]
  4044a8:	6b16031f 	cmp	w24, w22
  4044ac:	f87b7a60 	ldr	x0, [x19, x27, lsl #3]
  4044b0:	f83b7a61 	str	x1, [x19, x27, lsl #3]
  4044b4:	f90002a0 	str	x0, [x21]
  4044b8:	5400034d 	b.le	404520 <frame_downheap+0xf0>
  4044bc:	93407edb 	sxtw	x27, w22
  4044c0:	110006d4 	add	w20, w22, #0x1
  4044c4:	6b18029f 	cmp	w20, w24
  4044c8:	aa1903e0 	mov	x0, x25
  4044cc:	d37df375 	lsl	x21, x27, #3
  4044d0:	910022bc 	add	x28, x21, #0x8
  4044d4:	f87b7a62 	ldr	x2, [x19, x27, lsl #3]
  4044d8:	8b150275 	add	x21, x19, x21
  4044dc:	5400034a 	b.ge	404544 <frame_downheap+0x114>  // b.tcont
  4044e0:	aa0203e1 	mov	x1, x2
  4044e4:	8b1c0262 	add	x2, x19, x28
  4044e8:	f90037a2 	str	x2, [x29, #104]
  4044ec:	f87c6a62 	ldr	x2, [x19, x28]
  4044f0:	d63f0340 	blr	x26
  4044f4:	36fffc40 	tbz	w0, #31, 40447c <frame_downheap+0x4c>
  4044f8:	93407efb 	sxtw	x27, w23
  4044fc:	f87c6a62 	ldr	x2, [x19, x28]
  404500:	2a1403f7 	mov	w23, w20
  404504:	531f7a94 	lsl	w20, w20, #1
  404508:	aa1903e0 	mov	x0, x25
  40450c:	8b1c0275 	add	x21, x19, x28
  404510:	f87b7a61 	ldr	x1, [x19, x27, lsl #3]
  404514:	11000696 	add	w22, w20, #0x1
  404518:	d63f0340 	blr	x26
  40451c:	37fffc40 	tbnz	w0, #31, 4044a4 <frame_downheap+0x74>
  404520:	f9400bb3 	ldr	x19, [x29, #16]
  404524:	f94013b5 	ldr	x21, [x29, #32]
  404528:	a94363b7 	ldp	x23, x24, [x29, #48]
  40452c:	a9446bb9 	ldp	x25, x26, [x29, #64]
  404530:	a94573bb 	ldp	x27, x28, [x29, #80]
  404534:	f9400ff4 	ldr	x20, [sp, #24]
  404538:	f94017f6 	ldr	x22, [sp, #40]
  40453c:	a8c77bfd 	ldp	x29, x30, [sp], #112
  404540:	d65f03c0 	ret
  404544:	2a1603f4 	mov	w20, w22
  404548:	17ffffcf 	b	404484 <frame_downheap+0x54>
  40454c:	d503201f 	nop

0000000000404550 <frame_heapsort>:
  404550:	a9bb7bfd 	stp	x29, x30, [sp, #-80]!
  404554:	910003fd 	mov	x29, sp
  404558:	a90153f3 	stp	x19, x20, [sp, #16]
  40455c:	f9400453 	ldr	x19, [x2, #8]
  404560:	a9025bf5 	stp	x21, x22, [sp, #32]
  404564:	aa0203f6 	mov	x22, x2
  404568:	a90363f7 	stp	x23, x24, [sp, #48]
  40456c:	91004055 	add	x21, x2, #0x10
  404570:	d341fe74 	lsr	x20, x19, #1
  404574:	aa0003f7 	mov	x23, x0
  404578:	aa0103f8 	mov	x24, x1
  40457c:	71000694 	subs	w20, w20, #0x1
  404580:	540001c4 	b.mi	4045b8 <frame_heapsort+0x68>  // b.first
  404584:	f90023b9 	str	x25, [x29, #64]
  404588:	2a1303f9 	mov	w25, w19
  40458c:	d503201f 	nop
  404590:	2a1403e3 	mov	w3, w20
  404594:	2a1903e4 	mov	w4, w25
  404598:	aa1503e2 	mov	x2, x21
  40459c:	aa1803e1 	mov	x1, x24
  4045a0:	aa1703e0 	mov	x0, x23
  4045a4:	51000694 	sub	w20, w20, #0x1
  4045a8:	97ffffa2 	bl	404430 <frame_downheap>
  4045ac:	3100069f 	cmn	w20, #0x1
  4045b0:	54ffff01 	b.ne	404590 <frame_heapsort+0x40>  // b.any
  4045b4:	f94023b9 	ldr	x25, [x29, #64]
  4045b8:	51000673 	sub	w19, w19, #0x1
  4045bc:	7100027f 	cmp	w19, #0x0
  4045c0:	540001ed 	b.le	4045fc <frame_heapsort+0xac>
  4045c4:	93407e73 	sxtw	x19, w19
  4045c8:	f8737aa1 	ldr	x1, [x21, x19, lsl #3]
  4045cc:	2a1303e4 	mov	w4, w19
  4045d0:	f9400ac0 	ldr	x0, [x22, #16]
  4045d4:	52800003 	mov	w3, #0x0                   	// #0
  4045d8:	f9000ac1 	str	x1, [x22, #16]
  4045dc:	aa1503e2 	mov	x2, x21
  4045e0:	f8337aa0 	str	x0, [x21, x19, lsl #3]
  4045e4:	aa1803e1 	mov	x1, x24
  4045e8:	aa1703e0 	mov	x0, x23
  4045ec:	d1000673 	sub	x19, x19, #0x1
  4045f0:	97ffff90 	bl	404430 <frame_downheap>
  4045f4:	7100027f 	cmp	w19, #0x0
  4045f8:	54fffe8c 	b.gt	4045c8 <frame_heapsort+0x78>
  4045fc:	a94153f3 	ldp	x19, x20, [sp, #16]
  404600:	a9425bf5 	ldp	x21, x22, [sp, #32]
  404604:	a94363f7 	ldp	x23, x24, [sp, #48]
  404608:	a8c57bfd 	ldp	x29, x30, [sp], #80
  40460c:	d65f03c0 	ret

0000000000404610 <read_encoded_value_with_base>:
  404610:	12001c05 	and	w5, w0, #0xff
  404614:	710140bf 	cmp	w5, #0x50
  404618:	54000420 	b.eq	40469c <read_encoded_value_with_base+0x8c>  // b.none
  40461c:	12000ca0 	and	w0, w5, #0xf
  404620:	7100101f 	cmp	w0, #0x4
  404624:	54000120 	b.eq	404648 <read_encoded_value_with_base+0x38>  // b.none
  404628:	54000269 	b.ls	404674 <read_encoded_value_with_base+0x64>  // b.plast
  40462c:	7100281f 	cmp	w0, #0xa
  404630:	54000800 	b.eq	404730 <read_encoded_value_with_base+0x120>  // b.none
  404634:	540003e9 	b.ls	4046b0 <read_encoded_value_with_base+0xa0>  // b.plast
  404638:	71002c1f 	cmp	w0, #0xb
  40463c:	54000740 	b.eq	404724 <read_encoded_value_with_base+0x114>  // b.none
  404640:	7100301f 	cmp	w0, #0xc
  404644:	54000821 	b.ne	404748 <read_encoded_value_with_base+0x138>  // b.any
  404648:	aa0203e0 	mov	x0, x2
  40464c:	f8408404 	ldr	x4, [x0], #8
  404650:	b40000e4 	cbz	x4, 40466c <read_encoded_value_with_base+0x5c>
  404654:	121c08a6 	and	w6, w5, #0x70
  404658:	710040df 	cmp	w6, #0x10
  40465c:	9a810041 	csel	x1, x2, x1, eq  // eq = none
  404660:	8b010084 	add	x4, x4, x1
  404664:	36380045 	tbz	w5, #7, 40466c <read_encoded_value_with_base+0x5c>
  404668:	f9400084 	ldr	x4, [x4]
  40466c:	f9000064 	str	x4, [x3]
  404670:	d65f03c0 	ret
  404674:	7100041f 	cmp	w0, #0x1
  404678:	54000420 	b.eq	4046fc <read_encoded_value_with_base+0xec>  // b.none
  40467c:	34fffe60 	cbz	w0, 404648 <read_encoded_value_with_base+0x38>
  404680:	7100081f 	cmp	w0, #0x2
  404684:	540005c0 	b.eq	40473c <read_encoded_value_with_base+0x12c>  // b.none
  404688:	71000c1f 	cmp	w0, #0x3
  40468c:	540005e1 	b.ne	404748 <read_encoded_value_with_base+0x138>  // b.any
  404690:	aa0203e0 	mov	x0, x2
  404694:	b8404404 	ldr	w4, [x0], #4
  404698:	17ffffee 	b	404650 <read_encoded_value_with_base+0x40>
  40469c:	91001c40 	add	x0, x2, #0x7
  4046a0:	927df000 	and	x0, x0, #0xfffffffffffffff8
  4046a4:	f8408404 	ldr	x4, [x0], #8
  4046a8:	f9000064 	str	x4, [x3]
  4046ac:	d65f03c0 	ret
  4046b0:	7100241f 	cmp	w0, #0x9
  4046b4:	540004a1 	b.ne	404748 <read_encoded_value_with_base+0x138>  // b.any
  4046b8:	aa0203e0 	mov	x0, x2
  4046bc:	d2800004 	mov	x4, #0x0                   	// #0
  4046c0:	52800007 	mov	w7, #0x0                   	// #0
  4046c4:	d503201f 	nop
  4046c8:	38401408 	ldrb	w8, [x0], #1
  4046cc:	92401906 	and	x6, x8, #0x7f
  4046d0:	9ac720c6 	lsl	x6, x6, x7
  4046d4:	11001ce7 	add	w7, w7, #0x7
  4046d8:	aa060084 	orr	x4, x4, x6
  4046dc:	373fff68 	tbnz	w8, #7, 4046c8 <read_encoded_value_with_base+0xb8>
  4046e0:	7100fcff 	cmp	w7, #0x3f
  4046e4:	54fffb68 	b.hi	404650 <read_encoded_value_with_base+0x40>  // b.pmore
  4046e8:	3637fb48 	tbz	w8, #6, 404650 <read_encoded_value_with_base+0x40>
  4046ec:	92800006 	mov	x6, #0xffffffffffffffff    	// #-1
  4046f0:	9ac720c7 	lsl	x7, x6, x7
  4046f4:	aa070084 	orr	x4, x4, x7
  4046f8:	17ffffd7 	b	404654 <read_encoded_value_with_base+0x44>
  4046fc:	aa0203e0 	mov	x0, x2
  404700:	d2800004 	mov	x4, #0x0                   	// #0
  404704:	52800007 	mov	w7, #0x0                   	// #0
  404708:	38401408 	ldrb	w8, [x0], #1
  40470c:	92401906 	and	x6, x8, #0x7f
  404710:	9ac720c6 	lsl	x6, x6, x7
  404714:	11001ce7 	add	w7, w7, #0x7
  404718:	aa060084 	orr	x4, x4, x6
  40471c:	373fff68 	tbnz	w8, #7, 404708 <read_encoded_value_with_base+0xf8>
  404720:	17ffffcc 	b	404650 <read_encoded_value_with_base+0x40>
  404724:	aa0203e0 	mov	x0, x2
  404728:	b8804404 	ldrsw	x4, [x0], #4
  40472c:	17ffffc9 	b	404650 <read_encoded_value_with_base+0x40>
  404730:	aa0203e0 	mov	x0, x2
  404734:	78802404 	ldrsh	x4, [x0], #2
  404738:	17ffffc6 	b	404650 <read_encoded_value_with_base+0x40>
  40473c:	aa0203e0 	mov	x0, x2
  404740:	78402404 	ldrh	w4, [x0], #2
  404744:	17ffffc3 	b	404650 <read_encoded_value_with_base+0x40>
  404748:	a9bf7bfd 	stp	x29, x30, [sp, #-16]!
  40474c:	910003fd 	mov	x29, sp
  404750:	94001a60 	bl	40b0d0 <abort>
  404754:	d503201f 	nop

0000000000404758 <get_cie_encoding>:
  404758:	a9bd7bfd 	stp	x29, x30, [sp, #-48]!
  40475c:	910003fd 	mov	x29, sp
  404760:	a90153f3 	stp	x19, x20, [sp, #16]
  404764:	aa0003f4 	mov	x20, x0
  404768:	91002413 	add	x19, x0, #0x9
  40476c:	aa1303e0 	mov	x0, x19
  404770:	94005854 	bl	41a8c0 <__strlen>
  404774:	39402283 	ldrb	w3, [x20, #8]
  404778:	91000400 	add	x0, x0, #0x1
  40477c:	8b000261 	add	x1, x19, x0
  404780:	71000c7f 	cmp	w3, #0x3
  404784:	540006a8 	b.hi	404858 <get_cie_encoding+0x100>  // b.pmore
  404788:	39402680 	ldrb	w0, [x20, #9]
  40478c:	7101e81f 	cmp	w0, #0x7a
  404790:	540000a0 	b.eq	4047a4 <get_cie_encoding+0x4c>  // b.none
  404794:	52800000 	mov	w0, #0x0                   	// #0
  404798:	a94153f3 	ldp	x19, x20, [sp, #16]
  40479c:	a8c37bfd 	ldp	x29, x30, [sp], #48
  4047a0:	d65f03c0 	ret
  4047a4:	38c01420 	ldrsb	w0, [x1], #1
  4047a8:	36f800a0 	tbz	w0, #31, 4047bc <get_cie_encoding+0x64>
  4047ac:	38c01420 	ldrsb	w0, [x1], #1
  4047b0:	37ffffa0 	tbnz	w0, #31, 4047a4 <get_cie_encoding+0x4c>
  4047b4:	14000002 	b	4047bc <get_cie_encoding+0x64>
  4047b8:	aa0003e1 	mov	x1, x0
  4047bc:	aa0103e0 	mov	x0, x1
  4047c0:	38c01402 	ldrsb	w2, [x0], #1
  4047c4:	37ffffa2 	tbnz	w2, #31, 4047b8 <get_cie_encoding+0x60>
  4047c8:	7100047f 	cmp	w3, #0x1
  4047cc:	54000420 	b.eq	404850 <get_cie_encoding+0xf8>  // b.none
  4047d0:	38c01401 	ldrsb	w1, [x0], #1
  4047d4:	37ffffe1 	tbnz	w1, #31, 4047d0 <get_cie_encoding+0x78>
  4047d8:	91002a93 	add	x19, x20, #0xa
  4047dc:	d503201f 	nop
  4047e0:	38c01401 	ldrsb	w1, [x0], #1
  4047e4:	37ffffe1 	tbnz	w1, #31, 4047e0 <get_cie_encoding+0x88>
  4047e8:	39402a81 	ldrb	w1, [x20, #10]
  4047ec:	9100a3b4 	add	x20, x29, #0x28
  4047f0:	7101483f 	cmp	w1, #0x52
  4047f4:	54000101 	b.ne	404814 <get_cie_encoding+0xbc>  // b.any
  4047f8:	14000012 	b	404840 <get_cie_encoding+0xe8>
  4047fc:	91000400 	add	x0, x0, #0x1
  404800:	7101303f 	cmp	w1, #0x4c
  404804:	54fffc81 	b.ne	404794 <get_cie_encoding+0x3c>  // b.any
  404808:	38401e61 	ldrb	w1, [x19, #1]!
  40480c:	7101483f 	cmp	w1, #0x52
  404810:	54000180 	b.eq	404840 <get_cie_encoding+0xe8>  // b.none
  404814:	7101403f 	cmp	w1, #0x50
  404818:	54ffff21 	b.ne	4047fc <get_cie_encoding+0xa4>  // b.any
  40481c:	39400004 	ldrb	w4, [x0]
  404820:	91000402 	add	x2, x0, #0x1
  404824:	d2800001 	mov	x1, #0x0                   	// #0
  404828:	aa1403e3 	mov	x3, x20
  40482c:	12001880 	and	w0, w4, #0x7f
  404830:	97ffff78 	bl	404610 <read_encoded_value_with_base>
  404834:	38401e61 	ldrb	w1, [x19, #1]!
  404838:	7101483f 	cmp	w1, #0x52
  40483c:	54fffec1 	b.ne	404814 <get_cie_encoding+0xbc>  // b.any
  404840:	39400000 	ldrb	w0, [x0]
  404844:	a94153f3 	ldp	x19, x20, [sp, #16]
  404848:	a8c37bfd 	ldp	x29, x30, [sp], #48
  40484c:	d65f03c0 	ret
  404850:	91000820 	add	x0, x1, #0x2
  404854:	17ffffe1 	b	4047d8 <get_cie_encoding+0x80>
  404858:	38606a62 	ldrb	w2, [x19, x0]
  40485c:	52801fe0 	mov	w0, #0xff                  	// #255
  404860:	7100205f 	cmp	w2, #0x8
  404864:	54fff9a1 	b.ne	404798 <get_cie_encoding+0x40>  // b.any
  404868:	39400422 	ldrb	w2, [x1, #1]
  40486c:	35fff962 	cbnz	w2, 404798 <get_cie_encoding+0x40>
  404870:	91000821 	add	x1, x1, #0x2
  404874:	17ffffc5 	b	404788 <get_cie_encoding+0x30>

0000000000404878 <size_of_encoded_value.part.3>:
  404878:	12000801 	and	w1, w0, #0x7
  40487c:	7100083f 	cmp	w1, #0x2
  404880:	540000c0 	b.eq	404898 <size_of_encoded_value.part.3+0x20>  // b.none
  404884:	54000169 	b.ls	4048b0 <size_of_encoded_value.part.3+0x38>  // b.plast
  404888:	52800080 	mov	w0, #0x4                   	// #4
  40488c:	71000c3f 	cmp	w1, #0x3
  404890:	54000081 	b.ne	4048a0 <size_of_encoded_value.part.3+0x28>  // b.any
  404894:	d65f03c0 	ret
  404898:	2a0103e0 	mov	w0, w1
  40489c:	d65f03c0 	ret
  4048a0:	6b00003f 	cmp	w1, w0
  4048a4:	54000081 	b.ne	4048b4 <size_of_encoded_value.part.3+0x3c>  // b.any
  4048a8:	52800100 	mov	w0, #0x8                   	// #8
  4048ac:	d65f03c0 	ret
  4048b0:	34ffffc1 	cbz	w1, 4048a8 <size_of_encoded_value.part.3+0x30>
  4048b4:	a9bf7bfd 	stp	x29, x30, [sp, #-16]!
  4048b8:	910003fd 	mov	x29, sp
  4048bc:	94001a05 	bl	40b0d0 <abort>

00000000004048c0 <base_from_cb_data.isra.6.part.7>:
  4048c0:	121c0800 	and	w0, w0, #0x70
  4048c4:	7100801f 	cmp	w0, #0x20
  4048c8:	54000160 	b.eq	4048f4 <base_from_cb_data.isra.6.part.7+0x34>  // b.none
  4048cc:	540000a9 	b.ls	4048e0 <base_from_cb_data.isra.6.part.7+0x20>  // b.plast
  4048d0:	7100c01f 	cmp	w0, #0x30
  4048d4:	54000141 	b.ne	4048fc <base_from_cb_data.isra.6.part.7+0x3c>  // b.any
  4048d8:	f9400040 	ldr	x0, [x2]
  4048dc:	d65f03c0 	ret
  4048e0:	34000060 	cbz	w0, 4048ec <base_from_cb_data.isra.6.part.7+0x2c>
  4048e4:	7100401f 	cmp	w0, #0x10
  4048e8:	540000e1 	b.ne	404904 <base_from_cb_data.isra.6.part.7+0x44>  // b.any
  4048ec:	d2800000 	mov	x0, #0x0                   	// #0
  4048f0:	d65f03c0 	ret
  4048f4:	f9400020 	ldr	x0, [x1]
  4048f8:	d65f03c0 	ret
  4048fc:	7101401f 	cmp	w0, #0x50
  404900:	54ffff60 	b.eq	4048ec <base_from_cb_data.isra.6.part.7+0x2c>  // b.none
  404904:	a9bf7bfd 	stp	x29, x30, [sp, #-16]!
  404908:	910003fd 	mov	x29, sp
  40490c:	940019f1 	bl	40b0d0 <abort>

0000000000404910 <fde_single_encoding_compare>:
  404910:	a9bb7bfd 	stp	x29, x30, [sp, #-80]!
  404914:	910003fd 	mov	x29, sp
  404918:	a90153f3 	stp	x19, x20, [sp, #16]
  40491c:	aa0003f4 	mov	x20, x0
  404920:	79404013 	ldrh	w19, [x0, #32]
  404924:	a9025bf5 	stp	x21, x22, [sp, #32]
  404928:	aa0203f6 	mov	x22, x2
  40492c:	f9001bf7 	str	x23, [sp, #48]
  404930:	d2800015 	mov	x21, #0x0                   	// #0
  404934:	d3432a73 	ubfx	x19, x19, #3, #8
  404938:	aa0103f7 	mov	x23, x1
  40493c:	12001e60 	and	w0, w19, #0xff
  404940:	7103fc1f 	cmp	w0, #0xff
  404944:	540000c0 	b.eq	40495c <fde_single_encoding_compare+0x4c>  // b.none
  404948:	91004282 	add	x2, x20, #0x10
  40494c:	91002281 	add	x1, x20, #0x8
  404950:	2a1303e0 	mov	w0, w19
  404954:	97ffffdb 	bl	4048c0 <base_from_cb_data.isra.6.part.7>
  404958:	aa0003f5 	mov	x21, x0
  40495c:	910103a3 	add	x3, x29, #0x40
  404960:	910022e2 	add	x2, x23, #0x8
  404964:	aa1503e1 	mov	x1, x21
  404968:	2a1303e0 	mov	w0, w19
  40496c:	97ffff29 	bl	404610 <read_encoded_value_with_base>
  404970:	79404280 	ldrh	w0, [x20, #32]
  404974:	910123a3 	add	x3, x29, #0x48
  404978:	910022c2 	add	x2, x22, #0x8
  40497c:	aa1503e1 	mov	x1, x21
  404980:	d3432800 	ubfx	x0, x0, #3, #8
  404984:	97ffff23 	bl	404610 <read_encoded_value_with_base>
  404988:	a94407a2 	ldp	x2, x1, [x29, #64]
  40498c:	52800023 	mov	w3, #0x1                   	// #1
  404990:	a94153f3 	ldp	x19, x20, [sp, #16]
  404994:	eb01005f 	cmp	x2, x1
  404998:	5a9f23e0 	csetm	w0, cc  // cc = lo, ul, last
  40499c:	f9401bf7 	ldr	x23, [sp, #48]
  4049a0:	a9425bf5 	ldp	x21, x22, [sp, #32]
  4049a4:	1a839000 	csel	w0, w0, w3, ls  // ls = plast
  4049a8:	a8c57bfd 	ldp	x29, x30, [sp], #80
  4049ac:	d65f03c0 	ret

00000000004049b0 <linear_search_fdes>:
  4049b0:	a9b87bfd 	stp	x29, x30, [sp, #-128]!
  4049b4:	910003fd 	mov	x29, sp
  4049b8:	f9000bf3 	str	x19, [sp, #16]
  4049bc:	aa0003f3 	mov	x19, x0
  4049c0:	a9025bf5 	stp	x21, x22, [sp, #32]
  4049c4:	aa0203f5 	mov	x21, x2
  4049c8:	a90573fb 	stp	x27, x28, [sp, #80]
  4049cc:	91004002 	add	x2, x0, #0x10
  4049d0:	aa0103fb 	mov	x27, x1
  4049d4:	91002001 	add	x1, x0, #0x8
  4049d8:	79404000 	ldrh	w0, [x0, #32]
  4049dc:	d2800016 	mov	x22, #0x0                   	// #0
  4049e0:	a90607a2 	stp	x2, x1, [x29, #96]
  4049e4:	d3432800 	ubfx	x0, x0, #3, #8
  4049e8:	12001c05 	and	w5, w0, #0xff
  4049ec:	2a0503fc 	mov	w28, w5
  4049f0:	7103fcbf 	cmp	w5, #0xff
  4049f4:	54000060 	b.eq	404a00 <linear_search_fdes+0x50>  // b.none
  4049f8:	97ffffb2 	bl	4048c0 <base_from_cb_data.isra.6.part.7>
  4049fc:	aa0003f6 	mov	x22, x0
  404a00:	b9400360 	ldr	w0, [x27]
  404a04:	34000c80 	cbz	w0, 404b94 <linear_search_fdes+0x1e4>
  404a08:	f9000fb4 	str	x20, [x29, #24]
  404a0c:	d2800014 	mov	x20, #0x0                   	// #0
  404a10:	a90363b7 	stp	x23, x24, [x29, #48]
  404a14:	9101c3b8 	add	x24, x29, #0x70
  404a18:	a9046bb9 	stp	x25, x26, [x29, #64]
  404a1c:	9101e3b7 	add	x23, x29, #0x78
  404a20:	1400001e 	b	404a98 <linear_search_fdes+0xe8>
  404a24:	91001366 	add	x6, x27, #0x4
  404a28:	cb20c0da 	sub	x26, x6, w0, sxtw
  404a2c:	eb14035f 	cmp	x26, x20
  404a30:	540003c0 	b.eq	404aa8 <linear_search_fdes+0xf8>  // b.none
  404a34:	aa1a03e0 	mov	x0, x26
  404a38:	97ffff48 	bl	404758 <get_cie_encoding>
  404a3c:	12001c19 	and	w25, w0, #0xff
  404a40:	2a0003fc 	mov	w28, w0
  404a44:	7103ff3f 	cmp	w25, #0xff
  404a48:	540007c0 	b.eq	404b40 <linear_search_fdes+0x190>  // b.none
  404a4c:	a94607a2 	ldp	x2, x1, [x29, #96]
  404a50:	2a1903e0 	mov	w0, w25
  404a54:	aa1a03f4 	mov	x20, x26
  404a58:	97ffff9a 	bl	4048c0 <base_from_cb_data.isra.6.part.7>
  404a5c:	aa0003f6 	mov	x22, x0
  404a60:	35000a7c 	cbnz	w28, 404bac <linear_search_fdes+0x1fc>
  404a64:	d503201f 	nop
  404a68:	a9408361 	ldp	x1, x0, [x27, #8]
  404a6c:	a90703a1 	stp	x1, x0, [x29, #112]
  404a70:	5280001c 	mov	w28, #0x0                   	// #0
  404a74:	b4000081 	cbz	x1, 404a84 <linear_search_fdes+0xd4>
  404a78:	cb0102a1 	sub	x1, x21, x1
  404a7c:	eb00003f 	cmp	x1, x0
  404a80:	540004e3 	b.cc	404b1c <linear_search_fdes+0x16c>  // b.lo, b.ul, b.last
  404a84:	b9400360 	ldr	w0, [x27]
  404a88:	91001000 	add	x0, x0, #0x4
  404a8c:	8b00037b 	add	x27, x27, x0
  404a90:	b9400360 	ldr	w0, [x27]
  404a94:	340007a0 	cbz	w0, 404b88 <linear_search_fdes+0x1d8>
  404a98:	b9400760 	ldr	w0, [x27, #4]
  404a9c:	34ffff40 	cbz	w0, 404a84 <linear_search_fdes+0xd4>
  404aa0:	39408261 	ldrb	w1, [x19, #32]
  404aa4:	3717fc01 	tbnz	w1, #2, 404a24 <linear_search_fdes+0x74>
  404aa8:	34fffe1c 	cbz	w28, 404a68 <linear_search_fdes+0xb8>
  404aac:	12001f99 	and	w25, w28, #0xff
  404ab0:	aa1603e1 	mov	x1, x22
  404ab4:	aa1803e3 	mov	x3, x24
  404ab8:	91002362 	add	x2, x27, #0x8
  404abc:	2a1903e0 	mov	w0, w25
  404ac0:	97fffed4 	bl	404610 <read_encoded_value_with_base>
  404ac4:	aa1703e3 	mov	x3, x23
  404ac8:	aa0003e2 	mov	x2, x0
  404acc:	d2800001 	mov	x1, #0x0                   	// #0
  404ad0:	12000f20 	and	w0, w25, #0xf
  404ad4:	97fffecf 	bl	404610 <read_encoded_value_with_base>
  404ad8:	7103ff3f 	cmp	w25, #0xff
  404adc:	54fffd40 	b.eq	404a84 <linear_search_fdes+0xd4>  // b.none
  404ae0:	2a1903e0 	mov	w0, w25
  404ae4:	97ffff65 	bl	404878 <size_of_encoded_value.part.3>
  404ae8:	7100201f 	cmp	w0, #0x8
  404aec:	531d7000 	lsl	w0, w0, #3
  404af0:	d2800022 	mov	x2, #0x1                   	// #1
  404af4:	f9403ba1 	ldr	x1, [x29, #112]
  404af8:	9ac02040 	lsl	x0, x2, x0
  404afc:	d1000400 	sub	x0, x0, #0x1
  404b00:	da9f3000 	csinv	x0, x0, xzr, cc  // cc = lo, ul, last
  404b04:	ea00003f 	tst	x1, x0
  404b08:	54fffbe0 	b.eq	404a84 <linear_search_fdes+0xd4>  // b.none
  404b0c:	f9403fa0 	ldr	x0, [x29, #120]
  404b10:	cb0102a1 	sub	x1, x21, x1
  404b14:	eb00003f 	cmp	x1, x0
  404b18:	54fffb62 	b.cs	404a84 <linear_search_fdes+0xd4>  // b.hs, b.nlast
  404b1c:	aa1b03e0 	mov	x0, x27
  404b20:	f9400fb4 	ldr	x20, [x29, #24]
  404b24:	a94363b7 	ldp	x23, x24, [x29, #48]
  404b28:	a9446bb9 	ldp	x25, x26, [x29, #64]
  404b2c:	f9400bf3 	ldr	x19, [sp, #16]
  404b30:	a9425bf5 	ldp	x21, x22, [sp, #32]
  404b34:	a94573fb 	ldp	x27, x28, [sp, #80]
  404b38:	a8c87bfd 	ldp	x29, x30, [sp], #128
  404b3c:	d65f03c0 	ret
  404b40:	91002362 	add	x2, x27, #0x8
  404b44:	d2800001 	mov	x1, #0x0                   	// #0
  404b48:	aa1803e3 	mov	x3, x24
  404b4c:	12800000 	mov	w0, #0xffffffff            	// #-1
  404b50:	97fffeb0 	bl	404610 <read_encoded_value_with_base>
  404b54:	aa0003e2 	mov	x2, x0
  404b58:	aa1703e3 	mov	x3, x23
  404b5c:	528001e0 	mov	w0, #0xf                   	// #15
  404b60:	d2800001 	mov	x1, #0x0                   	// #0
  404b64:	97fffeab 	bl	404610 <read_encoded_value_with_base>
  404b68:	b9400360 	ldr	w0, [x27]
  404b6c:	aa1a03f4 	mov	x20, x26
  404b70:	d2800016 	mov	x22, #0x0                   	// #0
  404b74:	91001000 	add	x0, x0, #0x4
  404b78:	8b00037b 	add	x27, x27, x0
  404b7c:	b9400360 	ldr	w0, [x27]
  404b80:	35fff8c0 	cbnz	w0, 404a98 <linear_search_fdes+0xe8>
  404b84:	d503201f 	nop
  404b88:	f9400fb4 	ldr	x20, [x29, #24]
  404b8c:	a94363b7 	ldp	x23, x24, [x29, #48]
  404b90:	a9446bb9 	ldp	x25, x26, [x29, #64]
  404b94:	d2800000 	mov	x0, #0x0                   	// #0
  404b98:	f9400bf3 	ldr	x19, [sp, #16]
  404b9c:	a9425bf5 	ldp	x21, x22, [sp, #32]
  404ba0:	a94573fb 	ldp	x27, x28, [sp, #80]
  404ba4:	a8c87bfd 	ldp	x29, x30, [sp], #128
  404ba8:	d65f03c0 	ret
  404bac:	aa0003e1 	mov	x1, x0
  404bb0:	aa1803e3 	mov	x3, x24
  404bb4:	91002362 	add	x2, x27, #0x8
  404bb8:	2a1903e0 	mov	w0, w25
  404bbc:	97fffe95 	bl	404610 <read_encoded_value_with_base>
  404bc0:	aa0003e2 	mov	x2, x0
  404bc4:	aa1703e3 	mov	x3, x23
  404bc8:	d2800001 	mov	x1, #0x0                   	// #0
  404bcc:	12000f20 	and	w0, w25, #0xf
  404bd0:	97fffe90 	bl	404610 <read_encoded_value_with_base>
  404bd4:	17ffffc3 	b	404ae0 <linear_search_fdes+0x130>

0000000000404bd8 <fde_mixed_encoding_compare>:
  404bd8:	a9bb7bfd 	stp	x29, x30, [sp, #-80]!
  404bdc:	910003fd 	mov	x29, sp
  404be0:	a90153f3 	stp	x19, x20, [sp, #16]
  404be4:	aa0103f3 	mov	x19, x1
  404be8:	91001021 	add	x1, x1, #0x4
  404bec:	a9025bf5 	stp	x21, x22, [sp, #32]
  404bf0:	f9001bf7 	str	x23, [sp, #48]
  404bf4:	91004015 	add	x21, x0, #0x10
  404bf8:	91002017 	add	x23, x0, #0x8
  404bfc:	b9800660 	ldrsw	x0, [x19, #4]
  404c00:	aa0203f6 	mov	x22, x2
  404c04:	cb000020 	sub	x0, x1, x0
  404c08:	97fffed4 	bl	404758 <get_cie_encoding>
  404c0c:	12001c14 	and	w20, w0, #0xff
  404c10:	d2800001 	mov	x1, #0x0                   	// #0
  404c14:	7103fe9f 	cmp	w20, #0xff
  404c18:	540000c0 	b.eq	404c30 <fde_mixed_encoding_compare+0x58>  // b.none
  404c1c:	aa1703e1 	mov	x1, x23
  404c20:	aa1503e2 	mov	x2, x21
  404c24:	2a1403e0 	mov	w0, w20
  404c28:	97ffff26 	bl	4048c0 <base_from_cb_data.isra.6.part.7>
  404c2c:	aa0003e1 	mov	x1, x0
  404c30:	91002262 	add	x2, x19, #0x8
  404c34:	910103a3 	add	x3, x29, #0x40
  404c38:	2a1403e0 	mov	w0, w20
  404c3c:	97fffe75 	bl	404610 <read_encoded_value_with_base>
  404c40:	910012c1 	add	x1, x22, #0x4
  404c44:	b98006c0 	ldrsw	x0, [x22, #4]
  404c48:	cb000020 	sub	x0, x1, x0
  404c4c:	97fffec3 	bl	404758 <get_cie_encoding>
  404c50:	12001c13 	and	w19, w0, #0xff
  404c54:	d2800001 	mov	x1, #0x0                   	// #0
  404c58:	7103fe7f 	cmp	w19, #0xff
  404c5c:	540000c0 	b.eq	404c74 <fde_mixed_encoding_compare+0x9c>  // b.none
  404c60:	aa1703e1 	mov	x1, x23
  404c64:	aa1503e2 	mov	x2, x21
  404c68:	2a1303e0 	mov	w0, w19
  404c6c:	97ffff15 	bl	4048c0 <base_from_cb_data.isra.6.part.7>
  404c70:	aa0003e1 	mov	x1, x0
  404c74:	910123a3 	add	x3, x29, #0x48
  404c78:	910022c2 	add	x2, x22, #0x8
  404c7c:	2a1303e0 	mov	w0, w19
  404c80:	97fffe64 	bl	404610 <read_encoded_value_with_base>
  404c84:	a94407a2 	ldp	x2, x1, [x29, #64]
  404c88:	52800023 	mov	w3, #0x1                   	// #1
  404c8c:	a94153f3 	ldp	x19, x20, [sp, #16]
  404c90:	eb01005f 	cmp	x2, x1
  404c94:	5a9f23e0 	csetm	w0, cc  // cc = lo, ul, last
  404c98:	f9401bf7 	ldr	x23, [sp, #48]
  404c9c:	a9425bf5 	ldp	x21, x22, [sp, #32]
  404ca0:	1a839000 	csel	w0, w0, w3, ls  // ls = plast
  404ca4:	a8c57bfd 	ldp	x29, x30, [sp], #80
  404ca8:	d65f03c0 	ret
  404cac:	d503201f 	nop

0000000000404cb0 <classify_object_over_fdes>:
  404cb0:	a9b87bfd 	stp	x29, x30, [sp, #-128]!
  404cb4:	910003fd 	mov	x29, sp
  404cb8:	f90013f5 	str	x21, [sp, #32]
  404cbc:	aa0003f5 	mov	x21, x0
  404cc0:	b9400020 	ldr	w0, [x1]
  404cc4:	f9001ff8 	str	x24, [sp, #56]
  404cc8:	34000c20 	cbz	w0, 404e4c <classify_object_over_fdes+0x19c>
  404ccc:	a90153b3 	stp	x19, x20, [x29, #16]
  404cd0:	aa0103f3 	mov	x19, x1
  404cd4:	a9046bb9 	stp	x25, x26, [x29, #64]
  404cd8:	9101e3b9 	add	x25, x29, #0x78
  404cdc:	a902dfb6 	stp	x22, x23, [x29, #40]
  404ce0:	910042a0 	add	x0, x21, #0x10
  404ce4:	a90573bb 	stp	x27, x28, [x29, #80]
  404ce8:	d2800017 	mov	x23, #0x0                   	// #0
  404cec:	52800016 	mov	w22, #0x0                   	// #0
  404cf0:	d2800018 	mov	x24, #0x0                   	// #0
  404cf4:	d280001c 	mov	x28, #0x0                   	// #0
  404cf8:	9280001b 	mov	x27, #0xffffffffffffffff    	// #-1
  404cfc:	f90037a0 	str	x0, [x29, #104]
  404d00:	b9400660 	ldr	w0, [x19, #4]
  404d04:	340006e0 	cbz	w0, 404de0 <classify_object_over_fdes+0x130>
  404d08:	91001274 	add	x20, x19, #0x4
  404d0c:	12001eda 	and	w26, w22, #0xff
  404d10:	cb20c294 	sub	x20, x20, w0, sxtw
  404d14:	eb1c029f 	cmp	x20, x28
  404d18:	54000320 	b.eq	404d7c <classify_object_over_fdes+0xcc>  // b.none
  404d1c:	aa1403e0 	mov	x0, x20
  404d20:	97fffe8e 	bl	404758 <get_cie_encoding>
  404d24:	2a0003f6 	mov	w22, w0
  404d28:	7103fc1f 	cmp	w0, #0xff
  404d2c:	540007c0 	b.eq	404e24 <classify_object_over_fdes+0x174>  // b.none
  404d30:	12001c1a 	and	w26, w0, #0xff
  404d34:	d2800017 	mov	x23, #0x0                   	// #0
  404d38:	7103ff5f 	cmp	w26, #0xff
  404d3c:	540000c0 	b.eq	404d54 <classify_object_over_fdes+0xa4>  // b.none
  404d40:	f94037a2 	ldr	x2, [x29, #104]
  404d44:	910022a1 	add	x1, x21, #0x8
  404d48:	2a1a03e0 	mov	w0, w26
  404d4c:	97fffedd 	bl	4048c0 <base_from_cb_data.isra.6.part.7>
  404d50:	aa0003f7 	mov	x23, x0
  404d54:	794042a0 	ldrh	w0, [x21, #32]
  404d58:	121d1c01 	and	w1, w0, #0x7f8
  404d5c:	711fe03f 	cmp	w1, #0x7f8
  404d60:	540005c0 	b.eq	404e18 <classify_object_over_fdes+0x168>  // b.none
  404d64:	d3432800 	ubfx	x0, x0, #3, #8
  404d68:	6b16001f 	cmp	w0, w22
  404d6c:	54000080 	b.eq	404d7c <classify_object_over_fdes+0xcc>  // b.none
  404d70:	394082a0 	ldrb	w0, [x21, #32]
  404d74:	321e0000 	orr	w0, w0, #0x4
  404d78:	390082a0 	strb	w0, [x21, #32]
  404d7c:	aa1903e3 	mov	x3, x25
  404d80:	91002262 	add	x2, x19, #0x8
  404d84:	aa1703e1 	mov	x1, x23
  404d88:	2a1a03e0 	mov	w0, w26
  404d8c:	97fffe21 	bl	404610 <read_encoded_value_with_base>
  404d90:	aa1403fc 	mov	x28, x20
  404d94:	7103ff5f 	cmp	w26, #0xff
  404d98:	54000240 	b.eq	404de0 <classify_object_over_fdes+0x130>  // b.none
  404d9c:	2a1a03e0 	mov	w0, w26
  404da0:	97fffeb6 	bl	404878 <size_of_encoded_value.part.3>
  404da4:	7100201f 	cmp	w0, #0x8
  404da8:	531d7000 	lsl	w0, w0, #3
  404dac:	d2800021 	mov	x1, #0x1                   	// #1
  404db0:	f9403fa2 	ldr	x2, [x29, #120]
  404db4:	9ac02020 	lsl	x0, x1, x0
  404db8:	d1000400 	sub	x0, x0, #0x1
  404dbc:	9a9b3000 	csel	x0, x0, x27, cc  // cc = lo, ul, last
  404dc0:	ea00005f 	tst	x2, x0
  404dc4:	540000e0 	b.eq	404de0 <classify_object_over_fdes+0x130>  // b.none
  404dc8:	f94002a0 	ldr	x0, [x21]
  404dcc:	8b010318 	add	x24, x24, x1
  404dd0:	eb02001f 	cmp	x0, x2
  404dd4:	54000049 	b.ls	404ddc <classify_object_over_fdes+0x12c>  // b.plast
  404dd8:	f90002a2 	str	x2, [x21]
  404ddc:	aa1403fc 	mov	x28, x20
  404de0:	b9400260 	ldr	w0, [x19]
  404de4:	91001000 	add	x0, x0, #0x4
  404de8:	8b000273 	add	x19, x19, x0
  404dec:	b9400260 	ldr	w0, [x19]
  404df0:	35fff880 	cbnz	w0, 404d00 <classify_object_over_fdes+0x50>
  404df4:	a94153b3 	ldp	x19, x20, [x29, #16]
  404df8:	a942dfb6 	ldp	x22, x23, [x29, #40]
  404dfc:	a9446bb9 	ldp	x25, x26, [x29, #64]
  404e00:	a94573bb 	ldp	x27, x28, [x29, #80]
  404e04:	aa1803e0 	mov	x0, x24
  404e08:	f94013f5 	ldr	x21, [sp, #32]
  404e0c:	f9401ff8 	ldr	x24, [sp, #56]
  404e10:	a8c87bfd 	ldp	x29, x30, [sp], #128
  404e14:	d65f03c0 	ret
  404e18:	331d1f40 	bfi	w0, w26, #3, #8
  404e1c:	790042a0 	strh	w0, [x21, #32]
  404e20:	17ffffd7 	b	404d7c <classify_object_over_fdes+0xcc>
  404e24:	92800018 	mov	x24, #0xffffffffffffffff    	// #-1
  404e28:	f94013f5 	ldr	x21, [sp, #32]
  404e2c:	a94153b3 	ldp	x19, x20, [x29, #16]
  404e30:	aa1803e0 	mov	x0, x24
  404e34:	a942dfb6 	ldp	x22, x23, [x29, #40]
  404e38:	a9446bb9 	ldp	x25, x26, [x29, #64]
  404e3c:	a94573bb 	ldp	x27, x28, [x29, #80]
  404e40:	f9401ff8 	ldr	x24, [sp, #56]
  404e44:	a8c87bfd 	ldp	x29, x30, [sp], #128
  404e48:	d65f03c0 	ret
  404e4c:	d2800018 	mov	x24, #0x0                   	// #0
  404e50:	17ffffed 	b	404e04 <classify_object_over_fdes+0x154>
  404e54:	d503201f 	nop

0000000000404e58 <add_fdes>:
  404e58:	a9b87bfd 	stp	x29, x30, [sp, #-128]!
  404e5c:	910003fd 	mov	x29, sp
  404e60:	a90153f3 	stp	x19, x20, [sp, #16]
  404e64:	aa0103f4 	mov	x20, x1
  404e68:	f9001ff8 	str	x24, [sp, #56]
  404e6c:	91002001 	add	x1, x0, #0x8
  404e70:	a904effa 	stp	x26, x27, [sp, #72]
  404e74:	91004018 	add	x24, x0, #0x10
  404e78:	aa0003fa 	mov	x26, x0
  404e7c:	79404000 	ldrh	w0, [x0, #32]
  404e80:	f90013f5 	str	x21, [sp, #32]
  404e84:	aa0203f3 	mov	x19, x2
  404e88:	f90037a1 	str	x1, [x29, #104]
  404e8c:	d2800015 	mov	x21, #0x0                   	// #0
  404e90:	d3432800 	ubfx	x0, x0, #3, #8
  404e94:	12001c1b 	and	w27, w0, #0xff
  404e98:	7103ff7f 	cmp	w27, #0xff
  404e9c:	54000080 	b.eq	404eac <add_fdes+0x54>  // b.none
  404ea0:	aa1803e2 	mov	x2, x24
  404ea4:	97fffe87 	bl	4048c0 <base_from_cb_data.isra.6.part.7>
  404ea8:	aa0003f5 	mov	x21, x0
  404eac:	b9400260 	ldr	w0, [x19]
  404eb0:	34000480 	cbz	w0, 404f40 <add_fdes+0xe8>
  404eb4:	a902dfb6 	stp	x22, x23, [x29, #40]
  404eb8:	9101e3b6 	add	x22, x29, #0x78
  404ebc:	f90023b9 	str	x25, [x29, #64]
  404ec0:	d2800019 	mov	x25, #0x0                   	// #0
  404ec4:	f9002fbc 	str	x28, [x29, #88]
  404ec8:	b9400660 	ldr	w0, [x19, #4]
  404ecc:	340002a0 	cbz	w0, 404f20 <add_fdes+0xc8>
  404ed0:	39408341 	ldrb	w1, [x26, #32]
  404ed4:	36100421 	tbz	w1, #2, 404f58 <add_fdes+0x100>
  404ed8:	9100127c 	add	x28, x19, #0x4
  404edc:	cb20c39c 	sub	x28, x28, w0, sxtw
  404ee0:	eb19039f 	cmp	x28, x25
  404ee4:	540003a0 	b.eq	404f58 <add_fdes+0x100>  // b.none
  404ee8:	aa1c03e0 	mov	x0, x28
  404eec:	97fffe1b 	bl	404758 <get_cie_encoding>
  404ef0:	12001c17 	and	w23, w0, #0xff
  404ef4:	2a0003fb 	mov	w27, w0
  404ef8:	7103feff 	cmp	w23, #0xff
  404efc:	540007c1 	b.ne	404ff4 <add_fdes+0x19c>  // b.any
  404f00:	aa1c03f9 	mov	x25, x28
  404f04:	d2800015 	mov	x21, #0x0                   	// #0
  404f08:	aa1603e3 	mov	x3, x22
  404f0c:	91002262 	add	x2, x19, #0x8
  404f10:	d2800001 	mov	x1, #0x0                   	// #0
  404f14:	12800000 	mov	w0, #0xffffffff            	// #-1
  404f18:	97fffdbe 	bl	404610 <read_encoded_value_with_base>
  404f1c:	d503201f 	nop
  404f20:	b9400260 	ldr	w0, [x19]
  404f24:	91001000 	add	x0, x0, #0x4
  404f28:	8b000273 	add	x19, x19, x0
  404f2c:	b9400260 	ldr	w0, [x19]
  404f30:	35fffcc0 	cbnz	w0, 404ec8 <add_fdes+0x70>
  404f34:	a942dfb6 	ldp	x22, x23, [x29, #40]
  404f38:	f94023b9 	ldr	x25, [x29, #64]
  404f3c:	f9402fbc 	ldr	x28, [x29, #88]
  404f40:	a94153f3 	ldp	x19, x20, [sp, #16]
  404f44:	f94013f5 	ldr	x21, [sp, #32]
  404f48:	f9401ff8 	ldr	x24, [sp, #56]
  404f4c:	a944effa 	ldp	x26, x27, [sp, #72]
  404f50:	a8c87bfd 	ldp	x29, x30, [sp], #128
  404f54:	d65f03c0 	ret
  404f58:	3500023b 	cbnz	w27, 404f9c <add_fdes+0x144>
  404f5c:	f9400660 	ldr	x0, [x19, #8]
  404f60:	5280001b 	mov	w27, #0x0                   	// #0
  404f64:	b4fffde0 	cbz	x0, 404f20 <add_fdes+0xc8>
  404f68:	f9400280 	ldr	x0, [x20]
  404f6c:	b4fffda0 	cbz	x0, 404f20 <add_fdes+0xc8>
  404f70:	f9400401 	ldr	x1, [x0, #8]
  404f74:	91000822 	add	x2, x1, #0x2
  404f78:	91000421 	add	x1, x1, #0x1
  404f7c:	f9000401 	str	x1, [x0, #8]
  404f80:	f8227813 	str	x19, [x0, x2, lsl #3]
  404f84:	b9400260 	ldr	w0, [x19]
  404f88:	91001000 	add	x0, x0, #0x4
  404f8c:	8b000273 	add	x19, x19, x0
  404f90:	b9400260 	ldr	w0, [x19]
  404f94:	35fff9a0 	cbnz	w0, 404ec8 <add_fdes+0x70>
  404f98:	17ffffe7 	b	404f34 <add_fdes+0xdc>
  404f9c:	12001f77 	and	w23, w27, #0xff
  404fa0:	aa1603e3 	mov	x3, x22
  404fa4:	91002262 	add	x2, x19, #0x8
  404fa8:	aa1503e1 	mov	x1, x21
  404fac:	2a1703e0 	mov	w0, w23
  404fb0:	97fffd98 	bl	404610 <read_encoded_value_with_base>
  404fb4:	7103feff 	cmp	w23, #0xff
  404fb8:	54000180 	b.eq	404fe8 <add_fdes+0x190>  // b.none
  404fbc:	2a1703e0 	mov	w0, w23
  404fc0:	97fffe2e 	bl	404878 <size_of_encoded_value.part.3>
  404fc4:	7100201f 	cmp	w0, #0x8
  404fc8:	531d7000 	lsl	w0, w0, #3
  404fcc:	d2800022 	mov	x2, #0x1                   	// #1
  404fd0:	f9403fa1 	ldr	x1, [x29, #120]
  404fd4:	9ac02040 	lsl	x0, x2, x0
  404fd8:	d1000400 	sub	x0, x0, #0x1
  404fdc:	da9f3000 	csinv	x0, x0, xzr, cc  // cc = lo, ul, last
  404fe0:	ea01001f 	tst	x0, x1
  404fe4:	54fffc21 	b.ne	404f68 <add_fdes+0x110>  // b.any
  404fe8:	aa1903fc 	mov	x28, x25
  404fec:	aa1c03f9 	mov	x25, x28
  404ff0:	17ffffcc 	b	404f20 <add_fdes+0xc8>
  404ff4:	f94037a1 	ldr	x1, [x29, #104]
  404ff8:	aa1803e2 	mov	x2, x24
  404ffc:	2a1703e0 	mov	w0, w23
  405000:	aa1c03f9 	mov	x25, x28
  405004:	97fffe2f 	bl	4048c0 <base_from_cb_data.isra.6.part.7>
  405008:	aa0003f5 	mov	x21, x0
  40500c:	34fffa9b 	cbz	w27, 404f5c <add_fdes+0x104>
  405010:	aa0003e1 	mov	x1, x0
  405014:	aa1603e3 	mov	x3, x22
  405018:	91002262 	add	x2, x19, #0x8
  40501c:	2a1703e0 	mov	w0, w23
  405020:	97fffd7c 	bl	404610 <read_encoded_value_with_base>
  405024:	17ffffe6 	b	404fbc <add_fdes+0x164>

0000000000405028 <search_object>:
  405028:	a9b67bfd 	stp	x29, x30, [sp, #-160]!
  40502c:	910003fd 	mov	x29, sp
  405030:	a90153f3 	stp	x19, x20, [sp, #16]
  405034:	aa0103f4 	mov	x20, x1
  405038:	39408001 	ldrb	w1, [x0, #32]
  40503c:	aa0003f3 	mov	x19, x0
  405040:	a9025bf5 	stp	x21, x22, [sp, #32]
  405044:	36000481 	tbz	w1, #0, 4050d4 <search_object+0xac>
  405048:	f9001bb7 	str	x23, [x29, #48]
  40504c:	f9400e77 	ldr	x23, [x19, #24]
  405050:	f94006f6 	ldr	x22, [x23, #8]
  405054:	37100aa1 	tbnz	w1, #2, 4051a8 <search_object+0x180>
  405058:	79404260 	ldrh	w0, [x19, #32]
  40505c:	d2800002 	mov	x2, #0x0                   	// #0
  405060:	721d1c1f 	tst	w0, #0x7f8
  405064:	54001dc1 	b.ne	40541c <search_object+0x3f4>  // b.any
  405068:	eb0202df 	cmp	x22, x2
  40506c:	54000269 	b.ls	4050b8 <search_object+0x90>  // b.plast
  405070:	8b0202c1 	add	x1, x22, x2
  405074:	d341fc21 	lsr	x1, x1, #1
  405078:	91000820 	add	x0, x1, #0x2
  40507c:	f8607af5 	ldr	x21, [x23, x0, lsl #3]
  405080:	a94092a3 	ldp	x3, x4, [x21, #8]
  405084:	eb03029f 	cmp	x20, x3
  405088:	54000143 	b.cc	4050b0 <search_object+0x88>  // b.lo, b.ul, b.last
  40508c:	1400003e 	b	405184 <search_object+0x15c>
  405090:	8b010040 	add	x0, x2, x1
  405094:	d341fc00 	lsr	x0, x0, #1
  405098:	91000803 	add	x3, x0, #0x2
  40509c:	f8637af5 	ldr	x21, [x23, x3, lsl #3]
  4050a0:	a94092a3 	ldp	x3, x4, [x21, #8]
  4050a4:	eb03029f 	cmp	x20, x3
  4050a8:	54000742 	b.cs	405190 <search_object+0x168>  // b.hs, b.nlast
  4050ac:	aa0003e1 	mov	x1, x0
  4050b0:	eb01005f 	cmp	x2, x1
  4050b4:	54fffee3 	b.cc	405090 <search_object+0x68>  // b.lo, b.ul, b.last
  4050b8:	f9401bb7 	ldr	x23, [x29, #48]
  4050bc:	d2800015 	mov	x21, #0x0                   	// #0
  4050c0:	aa1503e0 	mov	x0, x21
  4050c4:	a94153f3 	ldp	x19, x20, [sp, #16]
  4050c8:	a9425bf5 	ldp	x21, x22, [sp, #32]
  4050cc:	a8ca7bfd 	ldp	x29, x30, [sp], #160
  4050d0:	d65f03c0 	ret
  4050d4:	f9001fb8 	str	x24, [x29, #56]
  4050d8:	b9402018 	ldr	w24, [x0, #32]
  4050dc:	530b7f18 	lsr	w24, w24, #11
  4050e0:	b5000dd8 	cbnz	x24, 405298 <search_object+0x270>
  4050e4:	f9400c15 	ldr	x21, [x0, #24]
  4050e8:	36080c21 	tbz	w1, #1, 40526c <search_object+0x244>
  4050ec:	f94002a1 	ldr	x1, [x21]
  4050f0:	b50000a1 	cbnz	x1, 405104 <search_object+0xdc>
  4050f4:	1400000d 	b	405128 <search_object+0x100>
  4050f8:	f8408ea1 	ldr	x1, [x21, #8]!
  4050fc:	8b000318 	add	x24, x24, x0
  405100:	b4000c01 	cbz	x1, 405280 <search_object+0x258>
  405104:	aa1303e0 	mov	x0, x19
  405108:	97fffeea 	bl	404cb0 <classify_object_over_fdes>
  40510c:	b100041f 	cmn	x0, #0x1
  405110:	54ffff41 	b.ne	4050f8 <search_object+0xd0>  // b.any
  405114:	90000400 	adrp	x0, 485000 <__pthread_keys+0x3578>
  405118:	912be000 	add	x0, x0, #0xaf8
  40511c:	d280ff01 	mov	x1, #0x7f8                 	// #2040
  405120:	91002000 	add	x0, x0, #0x8
  405124:	a9018660 	stp	x0, x1, [x19, #24]
  405128:	f9400260 	ldr	x0, [x19]
  40512c:	eb14001f 	cmp	x0, x20
  405130:	54001548 	b.hi	4053d8 <search_object+0x3b0>  // b.pmore
  405134:	39408261 	ldrb	w1, [x19, #32]
  405138:	f9400e76 	ldr	x22, [x19, #24]
  40513c:	37002d41 	tbnz	w1, #0, 4056e4 <search_object+0x6bc>
  405140:	36081501 	tbz	w1, #1, 4053e0 <search_object+0x3b8>
  405144:	f94002c1 	ldr	x1, [x22]
  405148:	b5000081 	cbnz	x1, 405158 <search_object+0x130>
  40514c:	140000a3 	b	4053d8 <search_object+0x3b0>
  405150:	f8408ec1 	ldr	x1, [x22, #8]!
  405154:	b4001421 	cbz	x1, 4053d8 <search_object+0x3b0>
  405158:	aa1403e2 	mov	x2, x20
  40515c:	aa1303e0 	mov	x0, x19
  405160:	97fffe14 	bl	4049b0 <linear_search_fdes>
  405164:	aa0003f5 	mov	x21, x0
  405168:	b4ffff40 	cbz	x0, 405150 <search_object+0x128>
  40516c:	f9401fb8 	ldr	x24, [x29, #56]
  405170:	aa1503e0 	mov	x0, x21
  405174:	a94153f3 	ldp	x19, x20, [sp, #16]
  405178:	a9425bf5 	ldp	x21, x22, [sp, #32]
  40517c:	a8ca7bfd 	ldp	x29, x30, [sp], #160
  405180:	d65f03c0 	ret
  405184:	aa0103e0 	mov	x0, x1
  405188:	aa1603e1 	mov	x1, x22
  40518c:	d503201f 	nop
  405190:	8b040063 	add	x3, x3, x4
  405194:	eb03029f 	cmp	x20, x3
  405198:	54001a83 	b.cc	4054e8 <search_object+0x4c0>  // b.lo, b.ul, b.last
  40519c:	91000402 	add	x2, x0, #0x1
  4051a0:	aa0103f6 	mov	x22, x1
  4051a4:	17ffffb1 	b	405068 <search_object+0x40>
  4051a8:	b4fff896 	cbz	x22, 4050b8 <search_object+0x90>
  4051ac:	a903e7b8 	stp	x24, x25, [x29, #56]
  4051b0:	91002260 	add	x0, x19, #0x8
  4051b4:	a904efba 	stp	x26, x27, [x29, #72]
  4051b8:	91004273 	add	x19, x19, #0x10
  4051bc:	910243b9 	add	x25, x29, #0x90
  4051c0:	910223ba 	add	x26, x29, #0x88
  4051c4:	d280001b 	mov	x27, #0x0                   	// #0
  4051c8:	f9002fbc 	str	x28, [x29, #88]
  4051cc:	f9003fa0 	str	x0, [x29, #120]
  4051d0:	14000008 	b	4051f0 <search_object+0x1c8>
  4051d4:	f9404ba1 	ldr	x1, [x29, #144]
  4051d8:	8b010000 	add	x0, x0, x1
  4051dc:	eb14001f 	cmp	x0, x20
  4051e0:	54001728 	b.hi	4054c4 <search_object+0x49c>  // b.pmore
  4051e4:	9100071b 	add	x27, x24, #0x1
  4051e8:	eb16037f 	cmp	x27, x22
  4051ec:	54001102 	b.cs	40540c <search_object+0x3e4>  // b.hs, b.nlast
  4051f0:	8b160378 	add	x24, x27, x22
  4051f4:	d341ff18 	lsr	x24, x24, #1
  4051f8:	91000b00 	add	x0, x24, #0x2
  4051fc:	f8607af5 	ldr	x21, [x23, x0, lsl #3]
  405200:	910012a1 	add	x1, x21, #0x4
  405204:	b98006a0 	ldrsw	x0, [x21, #4]
  405208:	cb000020 	sub	x0, x1, x0
  40520c:	97fffd53 	bl	404758 <get_cie_encoding>
  405210:	12001c1c 	and	w28, w0, #0xff
  405214:	d2800001 	mov	x1, #0x0                   	// #0
  405218:	7103ff9f 	cmp	w28, #0xff
  40521c:	540000c0 	b.eq	405234 <search_object+0x20c>  // b.none
  405220:	f9403fa1 	ldr	x1, [x29, #120]
  405224:	aa1303e2 	mov	x2, x19
  405228:	2a1c03e0 	mov	w0, w28
  40522c:	97fffda5 	bl	4048c0 <base_from_cb_data.isra.6.part.7>
  405230:	aa0003e1 	mov	x1, x0
  405234:	aa1a03e3 	mov	x3, x26
  405238:	910022a2 	add	x2, x21, #0x8
  40523c:	2a1c03e0 	mov	w0, w28
  405240:	97fffcf4 	bl	404610 <read_encoded_value_with_base>
  405244:	aa1903e3 	mov	x3, x25
  405248:	aa0003e2 	mov	x2, x0
  40524c:	d2800001 	mov	x1, #0x0                   	// #0
  405250:	12000f80 	and	w0, w28, #0xf
  405254:	97fffcef 	bl	404610 <read_encoded_value_with_base>
  405258:	f94047a0 	ldr	x0, [x29, #136]
  40525c:	eb14001f 	cmp	x0, x20
  405260:	54fffba9 	b.ls	4051d4 <search_object+0x1ac>  // b.plast
  405264:	aa1803f6 	mov	x22, x24
  405268:	17ffffe0 	b	4051e8 <search_object+0x1c0>
  40526c:	aa1503e1 	mov	x1, x21
  405270:	97fffe90 	bl	404cb0 <classify_object_over_fdes>
  405274:	aa0003f8 	mov	x24, x0
  405278:	b100041f 	cmn	x0, #0x1
  40527c:	54fff4c0 	b.eq	405114 <search_object+0xec>  // b.none
  405280:	f26bab1f 	tst	x24, #0xffffffffffe00000
  405284:	b9402260 	ldr	w0, [x19, #32]
  405288:	540020a0 	b.eq	40569c <search_object+0x674>  // b.none
  40528c:	12002800 	and	w0, w0, #0x7ff
  405290:	b9002260 	str	w0, [x19, #32]
  405294:	b4fff4b8 	cbz	x24, 405128 <search_object+0x100>
  405298:	91000b15 	add	x21, x24, #0x2
  40529c:	d37df2b5 	lsl	x21, x21, #3
  4052a0:	aa1503e0 	mov	x0, x21
  4052a4:	94004e0b 	bl	418ad0 <__libc_malloc>
  4052a8:	f9004ba0 	str	x0, [x29, #144]
  4052ac:	b4fff3e0 	cbz	x0, 405128 <search_object+0x100>
  4052b0:	f9001bb7 	str	x23, [x29, #48]
  4052b4:	a9046bb9 	stp	x25, x26, [x29, #64]
  4052b8:	a90573bb 	stp	x27, x28, [x29, #80]
  4052bc:	f900041f 	str	xzr, [x0, #8]
  4052c0:	aa1503e0 	mov	x0, x21
  4052c4:	94004e03 	bl	418ad0 <__libc_malloc>
  4052c8:	f9004fa0 	str	x0, [x29, #152]
  4052cc:	b4000040 	cbz	x0, 4052d4 <search_object+0x2ac>
  4052d0:	f900041f 	str	xzr, [x0, #8]
  4052d4:	39408260 	ldrb	w0, [x19, #32]
  4052d8:	f9400e75 	ldr	x21, [x19, #24]
  4052dc:	36081cc0 	tbz	w0, #1, 405674 <search_object+0x64c>
  4052e0:	f94002a2 	ldr	x2, [x21]
  4052e4:	b4002042 	cbz	x2, 4056ec <search_object+0x6c4>
  4052e8:	910243b9 	add	x25, x29, #0x90
  4052ec:	d503201f 	nop
  4052f0:	aa1903e1 	mov	x1, x25
  4052f4:	aa1303e0 	mov	x0, x19
  4052f8:	97fffed8 	bl	404e58 <add_fdes>
  4052fc:	f8408ea2 	ldr	x2, [x21, #8]!
  405300:	b5ffff82 	cbnz	x2, 4052f0 <search_object+0x2c8>
  405304:	f9404ba0 	ldr	x0, [x29, #144]
  405308:	f90033a0 	str	x0, [x29, #96]
  40530c:	f9003fa0 	str	x0, [x29, #120]
  405310:	b4000080 	cbz	x0, 405320 <search_object+0x2f8>
  405314:	f9400400 	ldr	x0, [x0, #8]
  405318:	eb18001f 	cmp	x0, x24
  40531c:	54001e81 	b.ne	4056ec <search_object+0x6c4>  // b.any
  405320:	39408260 	ldrb	w0, [x19, #32]
  405324:	37101a20 	tbnz	w0, #2, 405668 <search_object+0x640>
  405328:	79404261 	ldrh	w1, [x19, #32]
  40532c:	f0ffffe0 	adrp	x0, 404000 <_Unwind_RaiseException+0x178>
  405330:	f0fffff5 	adrp	x21, 404000 <_Unwind_RaiseException+0x178>
  405334:	91104000 	add	x0, x0, #0x410
  405338:	912442b5 	add	x21, x21, #0x910
  40533c:	721d1c3f 	tst	w1, #0x7f8
  405340:	9a8012b5 	csel	x21, x21, x0, ne  // ne = any
  405344:	f9404fb7 	ldr	x23, [x29, #152]
  405348:	b4001a17 	cbz	x23, 405688 <search_object+0x660>
  40534c:	f9403fa1 	ldr	x1, [x29, #120]
  405350:	f9400420 	ldr	x0, [x1, #8]
  405354:	f9003ba0 	str	x0, [x29, #112]
  405358:	b4001b80 	cbz	x0, 4056c8 <search_object+0x6a0>
  40535c:	91000400 	add	x0, x0, #0x1
  405360:	9100403a 	add	x26, x1, #0x10
  405364:	90000403 	adrp	x3, 485000 <__pthread_keys+0x3578>
  405368:	912be07c 	add	x28, x3, #0xaf8
  40536c:	aa1a03f6 	mov	x22, x26
  405370:	aa1c03f9 	mov	x25, x28
  405374:	d37df000 	lsl	x0, x0, #3
  405378:	d280021b 	mov	x27, #0x10                  	// #16
  40537c:	f90037a0 	str	x0, [x29, #104]
  405380:	f94037a0 	ldr	x0, [x29, #104]
  405384:	f83b6afc 	str	x28, [x23, x27]
  405388:	eb1b001f 	cmp	x0, x27
  40538c:	54000ba0 	b.eq	405500 <search_object+0x4d8>  // b.none
  405390:	aa1603fc 	mov	x28, x22
  405394:	eb1902df 	cmp	x22, x25
  405398:	54000101 	b.ne	4053b8 <search_object+0x390>  // b.any
  40539c:	14000055 	b	4054f0 <search_object+0x4c8>
  4053a0:	cb1a0383 	sub	x3, x28, x26
  4053a4:	8b0302e0 	add	x0, x23, x3
  4053a8:	f940081c 	ldr	x28, [x0, #16]
  4053ac:	f900081f 	str	xzr, [x0, #16]
  4053b0:	eb19039f 	cmp	x28, x25
  4053b4:	540009e0 	b.eq	4054f0 <search_object+0x4c8>  // b.none
  4053b8:	f94006c1 	ldr	x1, [x22, #8]
  4053bc:	aa1303e0 	mov	x0, x19
  4053c0:	f9400382 	ldr	x2, [x28]
  4053c4:	d63f02a0 	blr	x21
  4053c8:	37fffec0 	tbnz	w0, #31, 4053a0 <search_object+0x378>
  4053cc:	910022d6 	add	x22, x22, #0x8
  4053d0:	9100237b 	add	x27, x27, #0x8
  4053d4:	17ffffeb 	b	405380 <search_object+0x358>
  4053d8:	f9401fb8 	ldr	x24, [x29, #56]
  4053dc:	17ffff38 	b	4050bc <search_object+0x94>
  4053e0:	aa1403e2 	mov	x2, x20
  4053e4:	aa1603e1 	mov	x1, x22
  4053e8:	aa1303e0 	mov	x0, x19
  4053ec:	97fffd71 	bl	4049b0 <linear_search_fdes>
  4053f0:	aa0003f5 	mov	x21, x0
  4053f4:	f9401fb8 	ldr	x24, [x29, #56]
  4053f8:	aa1503e0 	mov	x0, x21
  4053fc:	a94153f3 	ldp	x19, x20, [sp, #16]
  405400:	a9425bf5 	ldp	x21, x22, [sp, #32]
  405404:	a8ca7bfd 	ldp	x29, x30, [sp], #160
  405408:	d65f03c0 	ret
  40540c:	a94363b7 	ldp	x23, x24, [x29, #48]
  405410:	a9446bb9 	ldp	x25, x26, [x29, #64]
  405414:	a94573bb 	ldp	x27, x28, [x29, #80]
  405418:	17ffff29 	b	4050bc <search_object+0x94>
  40541c:	d3432800 	ubfx	x0, x0, #3, #8
  405420:	f9001fb8 	str	x24, [x29, #56]
  405424:	f9002bbb 	str	x27, [x29, #80]
  405428:	12001c18 	and	w24, w0, #0xff
  40542c:	d280001b 	mov	x27, #0x0                   	// #0
  405430:	7103ff1f 	cmp	w24, #0xff
  405434:	54000501 	b.ne	4054d4 <search_object+0x4ac>  // b.any
  405438:	b4001516 	cbz	x22, 4056d8 <search_object+0x6b0>
  40543c:	a9046bb9 	stp	x25, x26, [x29, #64]
  405440:	12000f00 	and	w0, w24, #0xf
  405444:	f9002fbc 	str	x28, [x29, #88]
  405448:	910243b9 	add	x25, x29, #0x90
  40544c:	910223ba 	add	x26, x29, #0x88
  405450:	b9007ba0 	str	w0, [x29, #120]
  405454:	d280001c 	mov	x28, #0x0                   	// #0
  405458:	14000008 	b	405478 <search_object+0x450>
  40545c:	f9404ba1 	ldr	x1, [x29, #144]
  405460:	8b010000 	add	x0, x0, x1
  405464:	eb00029f 	cmp	x20, x0
  405468:	540002e3 	b.cc	4054c4 <search_object+0x49c>  // b.lo, b.ul, b.last
  40546c:	9100067c 	add	x28, x19, #0x1
  405470:	eb16039f 	cmp	x28, x22
  405474:	54fffcc2 	b.cs	40540c <search_object+0x3e4>  // b.hs, b.nlast
  405478:	8b160393 	add	x19, x28, x22
  40547c:	aa1b03e1 	mov	x1, x27
  405480:	aa1a03e3 	mov	x3, x26
  405484:	2a1803e0 	mov	w0, w24
  405488:	d341fe73 	lsr	x19, x19, #1
  40548c:	91000a62 	add	x2, x19, #0x2
  405490:	f8627af5 	ldr	x21, [x23, x2, lsl #3]
  405494:	910022a2 	add	x2, x21, #0x8
  405498:	97fffc5e 	bl	404610 <read_encoded_value_with_base>
  40549c:	aa0003e2 	mov	x2, x0
  4054a0:	3941e3a0 	ldrb	w0, [x29, #120]
  4054a4:	aa1903e3 	mov	x3, x25
  4054a8:	d2800001 	mov	x1, #0x0                   	// #0
  4054ac:	97fffc59 	bl	404610 <read_encoded_value_with_base>
  4054b0:	f94047a0 	ldr	x0, [x29, #136]
  4054b4:	eb00029f 	cmp	x20, x0
  4054b8:	54fffd22 	b.cs	40545c <search_object+0x434>  // b.hs, b.nlast
  4054bc:	aa1303f6 	mov	x22, x19
  4054c0:	17ffffec 	b	405470 <search_object+0x448>
  4054c4:	a94363b7 	ldp	x23, x24, [x29, #48]
  4054c8:	a9446bb9 	ldp	x25, x26, [x29, #64]
  4054cc:	a94573bb 	ldp	x27, x28, [x29, #80]
  4054d0:	17fffefc 	b	4050c0 <search_object+0x98>
  4054d4:	91004262 	add	x2, x19, #0x10
  4054d8:	91002261 	add	x1, x19, #0x8
  4054dc:	97fffcf9 	bl	4048c0 <base_from_cb_data.isra.6.part.7>
  4054e0:	aa0003fb 	mov	x27, x0
  4054e4:	17ffffd5 	b	405438 <search_object+0x410>
  4054e8:	f9401bb7 	ldr	x23, [x29, #48]
  4054ec:	17fffef5 	b	4050c0 <search_object+0x98>
  4054f0:	aa1903fc 	mov	x28, x25
  4054f4:	910022d6 	add	x22, x22, #0x8
  4054f8:	9100237b 	add	x27, x27, #0x8
  4054fc:	17ffffa1 	b	405380 <search_object+0x358>
  405500:	d2800200 	mov	x0, #0x10                  	// #16
  405504:	d2800005 	mov	x5, #0x0                   	// #0
  405508:	d2800003 	mov	x3, #0x0                   	// #0
  40550c:	d2800001 	mov	x1, #0x0                   	// #0
  405510:	14000009 	b	405534 <search_object+0x50c>
  405514:	91000862 	add	x2, x3, #0x2
  405518:	91000463 	add	x3, x3, #0x1
  40551c:	f82278c4 	str	x4, [x6, x2, lsl #3]
  405520:	f9403ba2 	ldr	x2, [x29, #112]
  405524:	91000421 	add	x1, x1, #0x1
  405528:	91002000 	add	x0, x0, #0x8
  40552c:	eb01005f 	cmp	x2, x1
  405530:	54000120 	b.eq	405554 <search_object+0x52c>  // b.none
  405534:	f8606ae2 	ldr	x2, [x23, x0]
  405538:	f9403fa6 	ldr	x6, [x29, #120]
  40553c:	f86068c4 	ldr	x4, [x6, x0]
  405540:	b5fffea2 	cbnz	x2, 405514 <search_object+0x4ec>
  405544:	910008a2 	add	x2, x5, #0x2
  405548:	910004a5 	add	x5, x5, #0x1
  40554c:	f8227ae4 	str	x4, [x23, x2, lsl #3]
  405550:	17fffff4 	b	405520 <search_object+0x4f8>
  405554:	a9490ba0 	ldp	x0, x2, [x29, #144]
  405558:	f9003fa0 	str	x0, [x29, #120]
  40555c:	f94033a0 	ldr	x0, [x29, #96]
  405560:	f9000403 	str	x3, [x0, #8]
  405564:	f9403fa0 	ldr	x0, [x29, #120]
  405568:	f90006e5 	str	x5, [x23, #8]
  40556c:	f9400400 	ldr	x0, [x0, #8]
  405570:	f9400441 	ldr	x1, [x2, #8]
  405574:	8b010000 	add	x0, x0, x1
  405578:	eb18001f 	cmp	x0, x24
  40557c:	54000b81 	b.ne	4056ec <search_object+0x6c4>  // b.any
  405580:	aa1303e0 	mov	x0, x19
  405584:	aa1503e1 	mov	x1, x21
  405588:	97fffbf2 	bl	404550 <frame_heapsort>
  40558c:	f9404fa0 	ldr	x0, [x29, #152]
  405590:	f9003fa0 	str	x0, [x29, #120]
  405594:	f940041b 	ldr	x27, [x0, #8]
  405598:	b40004fb 	cbz	x27, 405634 <search_object+0x60c>
  40559c:	f9404bba 	ldr	x26, [x29, #144]
  4055a0:	f9400757 	ldr	x23, [x26, #8]
  4055a4:	d503201f 	nop
  4055a8:	f9403fa0 	ldr	x0, [x29, #120]
  4055ac:	d1000779 	sub	x25, x27, #0x1
  4055b0:	8b1b0c00 	add	x0, x0, x27, lsl #3
  4055b4:	f9400418 	ldr	x24, [x0, #8]
  4055b8:	b40007b7 	cbz	x23, 4056ac <search_object+0x684>
  4055bc:	910006f6 	add	x22, x23, #0x1
  4055c0:	8b160f56 	add	x22, x26, x22, lsl #3
  4055c4:	14000006 	b	4055dc <search_object+0x5b4>
  4055c8:	f94002c0 	ldr	x0, [x22]
  4055cc:	aa1c03f7 	mov	x23, x28
  4055d0:	f83b7ac0 	str	x0, [x22, x27, lsl #3]
  4055d4:	d10022d6 	sub	x22, x22, #0x8
  4055d8:	b40001dc 	cbz	x28, 405610 <search_object+0x5e8>
  4055dc:	f94002c1 	ldr	x1, [x22]
  4055e0:	d10006fc 	sub	x28, x23, #0x1
  4055e4:	aa1803e2 	mov	x2, x24
  4055e8:	aa1303e0 	mov	x0, x19
  4055ec:	d63f02a0 	blr	x21
  4055f0:	7100001f 	cmp	w0, #0x0
  4055f4:	8b1c0361 	add	x1, x27, x28
  4055f8:	54fffe8c 	b.gt	4055c8 <search_object+0x5a0>
  4055fc:	91000821 	add	x1, x1, #0x2
  405600:	f8217b58 	str	x24, [x26, x1, lsl #3]
  405604:	b40000b9 	cbz	x25, 405618 <search_object+0x5f0>
  405608:	aa1903fb 	mov	x27, x25
  40560c:	17ffffe7 	b	4055a8 <search_object+0x580>
  405610:	aa1903e1 	mov	x1, x25
  405614:	17fffffa 	b	4055fc <search_object+0x5d4>
  405618:	f9403fa0 	ldr	x0, [x29, #120]
  40561c:	f9404fa2 	ldr	x2, [x29, #152]
  405620:	f9003fa2 	str	x2, [x29, #120]
  405624:	f9400401 	ldr	x1, [x0, #8]
  405628:	f9400740 	ldr	x0, [x26, #8]
  40562c:	8b010000 	add	x0, x0, x1
  405630:	f9000740 	str	x0, [x26, #8]
  405634:	f9403fa0 	ldr	x0, [x29, #120]
  405638:	94004ebc 	bl	419128 <__free>
  40563c:	f9404ba1 	ldr	x1, [x29, #144]
  405640:	39408260 	ldrb	w0, [x19, #32]
  405644:	f9400e62 	ldr	x2, [x19, #24]
  405648:	f9401bb7 	ldr	x23, [x29, #48]
  40564c:	32000000 	orr	w0, w0, #0x1
  405650:	a9446bb9 	ldp	x25, x26, [x29, #64]
  405654:	a94573bb 	ldp	x27, x28, [x29, #80]
  405658:	f9000022 	str	x2, [x1]
  40565c:	f9000e61 	str	x1, [x19, #24]
  405660:	39008260 	strb	w0, [x19, #32]
  405664:	17fffeb1 	b	405128 <search_object+0x100>
  405668:	f0fffff5 	adrp	x21, 404000 <_Unwind_RaiseException+0x178>
  40566c:	912f62b5 	add	x21, x21, #0xbd8
  405670:	17ffff35 	b	405344 <search_object+0x31c>
  405674:	aa1503e2 	mov	x2, x21
  405678:	910243a1 	add	x1, x29, #0x90
  40567c:	aa1303e0 	mov	x0, x19
  405680:	97fffdf6 	bl	404e58 <add_fdes>
  405684:	17ffff20 	b	405304 <search_object+0x2dc>
  405688:	f9403fa2 	ldr	x2, [x29, #120]
  40568c:	aa1503e1 	mov	x1, x21
  405690:	aa1303e0 	mov	x0, x19
  405694:	97fffbaf 	bl	404550 <frame_heapsort>
  405698:	17ffffe9 	b	40563c <search_object+0x614>
  40569c:	33155300 	bfi	w0, w24, #11, #21
  4056a0:	b9002260 	str	w0, [x19, #32]
  4056a4:	b4ffd438 	cbz	x24, 405128 <search_object+0x100>
  4056a8:	17fffefc 	b	405298 <search_object+0x270>
  4056ac:	91000761 	add	x1, x27, #0x1
  4056b0:	f8217b58 	str	x24, [x26, x1, lsl #3]
  4056b4:	b4fffb39 	cbz	x25, 405618 <search_object+0x5f0>
  4056b8:	d1000b79 	sub	x25, x27, #0x2
  4056bc:	f9400018 	ldr	x24, [x0]
  4056c0:	aa1903e1 	mov	x1, x25
  4056c4:	17ffffce 	b	4055fc <search_object+0x5d4>
  4056c8:	aa1703e2 	mov	x2, x23
  4056cc:	d2800005 	mov	x5, #0x0                   	// #0
  4056d0:	d2800003 	mov	x3, #0x0                   	// #0
  4056d4:	17ffffa2 	b	40555c <search_object+0x534>
  4056d8:	a94363b7 	ldp	x23, x24, [x29, #48]
  4056dc:	f9402bbb 	ldr	x27, [x29, #80]
  4056e0:	17fffe77 	b	4050bc <search_object+0x94>
  4056e4:	f9401fb8 	ldr	x24, [x29, #56]
  4056e8:	17fffe58 	b	405048 <search_object+0x20>
  4056ec:	94001679 	bl	40b0d0 <abort>

00000000004056f0 <_Unwind_IteratePhdrCallback>:
  4056f0:	b9402844 	ldr	w4, [x2, #40]
  4056f4:	f100bc3f 	cmp	x1, #0x2f
  4056f8:	f9400009 	ldr	x9, [x0]
  4056fc:	7a408884 	ccmp	w4, #0x0, #0x4, hi  // hi = pmore
  405700:	f9400803 	ldr	x3, [x0, #16]
  405704:	540009a1 	b.ne	405838 <_Unwind_IteratePhdrCallback+0x148>  // b.any
  405708:	f100643f 	cmp	x1, #0x19
  40570c:	54001de9 	b.ls	405ac8 <_Unwind_IteratePhdrCallback+0x3d8>  // b.plast
  405710:	d280000e 	mov	x14, #0x0                   	// #0
  405714:	d2800010 	mov	x16, #0x0                   	// #0
  405718:	79403004 	ldrh	w4, [x0, #24]
  40571c:	d1000480 	sub	x0, x4, #0x1
  405720:	b4000884 	cbz	x4, 405830 <_Unwind_IteratePhdrCallback+0x140>
  405724:	529caa08 	mov	w8, #0xe550                	// #58704
  405728:	d280000c 	mov	x12, #0x0                   	// #0
  40572c:	d280000d 	mov	x13, #0x0                   	// #0
  405730:	d280000a 	mov	x10, #0x0                   	// #0
  405734:	d2800007 	mov	x7, #0x0                   	// #0
  405738:	d280000b 	mov	x11, #0x0                   	// #0
  40573c:	72ac8e88 	movk	w8, #0x6474, lsl #16
  405740:	d280002f 	mov	x15, #0x1                   	// #1
  405744:	14000009 	b	405768 <_Unwind_IteratePhdrCallback+0x78>
  405748:	6b08009f 	cmp	w4, w8
  40574c:	540006e0 	b.eq	405828 <_Unwind_IteratePhdrCallback+0x138>  // b.none
  405750:	7100089f 	cmp	w4, #0x2
  405754:	9a8310e7 	csel	x7, x7, x3, ne  // ne = any
  405758:	d1000400 	sub	x0, x0, #0x1
  40575c:	9100e063 	add	x3, x3, #0x38
  405760:	b100041f 	cmn	x0, #0x1
  405764:	54000260 	b.eq	4057b0 <_Unwind_IteratePhdrCallback+0xc0>  // b.none
  405768:	b9400064 	ldr	w4, [x3]
  40576c:	7100049f 	cmp	w4, #0x1
  405770:	54fffec1 	b.ne	405748 <_Unwind_IteratePhdrCallback+0x58>  // b.any
  405774:	f9400864 	ldr	x4, [x3, #16]
  405778:	f9400045 	ldr	x5, [x2]
  40577c:	8b040124 	add	x4, x9, x4
  405780:	eb0400bf 	cmp	x5, x4
  405784:	54fffea3 	b.cc	405758 <_Unwind_IteratePhdrCallback+0x68>  // b.lo, b.ul, b.last
  405788:	f9401466 	ldr	x6, [x3, #40]
  40578c:	d1000400 	sub	x0, x0, #0x1
  405790:	9100e063 	add	x3, x3, #0x38
  405794:	8b060086 	add	x6, x4, x6
  405798:	eb0600bf 	cmp	x5, x6
  40579c:	9a86218c 	csel	x12, x12, x6, cs  // cs = hs, nlast
  4057a0:	9a8421ad 	csel	x13, x13, x4, cs  // cs = hs, nlast
  4057a4:	9a8f214a 	csel	x10, x10, x15, cs  // cs = hs, nlast
  4057a8:	b100041f 	cmn	x0, #0x1
  4057ac:	54fffde1 	b.ne	405768 <_Unwind_IteratePhdrCallback+0x78>  // b.any
  4057b0:	b400040a 	cbz	x10, 405830 <_Unwind_IteratePhdrCallback+0x140>
  4057b4:	f100bc3f 	cmp	x1, #0x2f
  4057b8:	540001e9 	b.ls	4057f4 <_Unwind_IteratePhdrCallback+0x104>  // b.plast
  4057bc:	90000401 	adrp	x1, 485000 <__pthread_keys+0x3578>
  4057c0:	912be021 	add	x1, x1, #0xaf8
  4057c4:	f10001df 	cmp	x14, #0x0
  4057c8:	fa401a04 	ccmp	x16, #0x0, #0x4, ne  // ne = any
  4057cc:	f9400c20 	ldr	x0, [x1, #24]
  4057d0:	540000c0 	b.eq	4057e8 <_Unwind_IteratePhdrCallback+0xf8>  // b.none
  4057d4:	f94015c3 	ldr	x3, [x14, #40]
  4057d8:	f9001603 	str	x3, [x16, #40]
  4057dc:	f90015c0 	str	x0, [x14, #40]
  4057e0:	aa0e03e0 	mov	x0, x14
  4057e4:	f9000c2e 	str	x14, [x1, #24]
  4057e8:	a900300d 	stp	x13, x12, [x0]
  4057ec:	a9012c09 	stp	x9, x11, [x0, #16]
  4057f0:	f9001007 	str	x7, [x0, #32]
  4057f4:	b40001eb 	cbz	x11, 405830 <_Unwind_IteratePhdrCallback+0x140>
  4057f8:	a9b87bfd 	stp	x29, x30, [sp, #-128]!
  4057fc:	910003fd 	mov	x29, sp
  405800:	f9400960 	ldr	x0, [x11, #16]
  405804:	f9000ff4 	str	x20, [sp, #24]
  405808:	8b000134 	add	x20, x9, x0
  40580c:	38606920 	ldrb	w0, [x9, x0]
  405810:	7100041f 	cmp	w0, #0x1
  405814:	54000440 	b.eq	40589c <_Unwind_IteratePhdrCallback+0x1ac>  // b.none
  405818:	52800020 	mov	w0, #0x1                   	// #1
  40581c:	f9400ff4 	ldr	x20, [sp, #24]
  405820:	a8c87bfd 	ldp	x29, x30, [sp], #128
  405824:	d65f03c0 	ret
  405828:	aa0303eb 	mov	x11, x3
  40582c:	17ffffcb 	b	405758 <_Unwind_IteratePhdrCallback+0x68>
  405830:	52800000 	mov	w0, #0x0                   	// #0
  405834:	d65f03c0 	ret
  405838:	f00003c4 	adrp	x4, 480000 <_GLOBAL_OFFSET_TABLE_+0xc0>
  40583c:	90000406 	adrp	x6, 485000 <__pthread_keys+0x3578>
  405840:	a9422005 	ldp	x5, x8, [x0, #32]
  405844:	f9401887 	ldr	x7, [x4, #48]
  405848:	eb0700bf 	cmp	x5, x7
